Archive member included because of file (symbol)

..\mesh_common\mesh\libraries\CSR102x_A06\libcsrmesh.a(csr_mesh.o)
                              depend_Debug_CSR102x_A06\core_mesh_handler.o (CSRmeshRegisterAppCallback)
..\mesh_common\mesh\libraries\CSR102x_A06\libcsrmesh.a(csr_mesh_masp_mcp_common.o)
                              ..\mesh_common\mesh\libraries\CSR102x_A06\libcsrmesh.a(csr_mesh.o) (___libcsrmesh_215)
..\mesh_common\mesh\libraries\CSR102x_A06\libcsrmesh.a(csr_mesh_mtl.o)
                              ..\mesh_common\mesh\libraries\CSR102x_A06\libcsrmesh.a(csr_mesh.o) (___libcsrmesh_269)
..\mesh_common\mesh\libraries\CSR102x_A06\libcsrmesh.a(csr_mesh_ec_alloc.o)
                              ..\mesh_common\mesh\libraries\CSR102x_A06\libcsrmesh.a(csr_mesh.o) (___libcsrmesh_118)
..\mesh_common\mesh\libraries\CSR102x_A06\libcsrmesh.a(csr_mesh_masp.o)
                              ..\mesh_common\mesh\libraries\CSR102x_A06\libcsrmesh.a(csr_mesh.o) (___libcsrmesh_212)
..\mesh_common\mesh\libraries\CSR102x_A06\libcsrmesh.a(csr_mesh_mcp.o)
                              ..\mesh_common\mesh\libraries\CSR102x_A06\libcsrmesh.a(csr_mesh.o) (___libcsrmesh_243)
..\mesh_common\mesh\libraries\CSR102x_A06\libcsrmesh.a(csr_mesh_sha256_get_results.o)
                              ..\mesh_common\mesh\libraries\CSR102x_A06\libcsrmesh.a(csr_mesh_masp_mcp_common.o) (___libcsrmesh_297)
..\mesh_common\mesh\libraries\CSR102x_A06\libcsrmesh.a(csr_mesh_sha256_hmac.o)
                              ..\mesh_common\mesh\libraries\CSR102x_A06\libcsrmesh.a(csr_mesh_masp_mcp_common.o) (___libcsrmesh_308)
..\mesh_common\mesh\libraries\CSR102x_A06\libcsrmesh.a(csr_mesh_sha256_initialise.o)
                              ..\mesh_common\mesh\libraries\CSR102x_A06\libcsrmesh.a(csr_mesh_masp_mcp_common.o) (___libcsrmesh_311)
..\mesh_common\mesh\libraries\CSR102x_A06\libcsrmesh.a(csr_mesh_sha256_process_data.o)
                              ..\mesh_common\mesh\libraries\CSR102x_A06\libcsrmesh.a(csr_mesh_sha256_hmac.o) (___libcsrmesh_317)
..\mesh_common\mesh\libraries\CSR102x_A06\libcsrmesh.a(csr_mesh_bearer.o)
                              ..\mesh_common\mesh\libraries\CSR102x_A06\libcsrmesh.a(csr_mesh_mtl.o) (___libcsrmesh_335)
..\mesh_common\mesh\libraries\CSR102x_A06\libcsrmesh.a(csr_mesh_bearer_porting_util.o)
                              ..\mesh_common\mesh\libraries\CSR102x_A06\libcsrmesh.a(csr_mesh_bearer.o) (___libcsrmesh_353)
..\mesh_common\mesh\libraries\CSR102x_A06\libcsrmesh.a(csr1010_scheduler.o)
                              ..\mesh_common\mesh\libraries\CSR102x_A06\libcsrmesh.a(csr_mesh_bearer_porting_util.o) (IsCSRSchedRunning)
..\mesh_common\mesh\libraries\CSR102x_A06\libcsrmesh.a(csr_mesh_hal_ifce.o)
                              ..\mesh_common\mesh\libraries\CSR102x_A06\libcsrmesh.a(csr_mesh_masp.o) (___libcsrmesh_363)
..\mesh_common\mesh\libraries\CSR102x_A06\libcsrmesh.a(csr_mesh_security_ifce_101x.o)
                              ..\mesh_common\mesh\libraries\CSR102x_A06\libcsrmesh.a(csr_mesh_mtl.o) (___libcsrmesh_371)
..\mesh_common\mesh\libraries\CSR102x_A06\libcsrmesh.a(csr_mesh_config_model.o)
                              ..\mesh_common\mesh\libraries\CSR102x_A06\libcsrmesh.a(csr_mesh_mcp.o) (ConfigModelInit)
..\mesh_common\mesh\libraries\CSR102x_A06\libcsrmesh.a(csr_mesh_bearer_model.o)
                              ..\mesh_common\mesh\libraries\CSR102x_A06\libcsrmesh.a(csr_mesh_mcp.o) (BearerModelInit)
..\mesh_common\mesh\libraries\CSR102x_A06\libcsrmesh.a(csr_mesh_ec_math.o)
                              ..\mesh_common\mesh\libraries\CSR102x_A06\libcsrmesh.a(csr_mesh_masp.o) (___libcsrmesh_127)
..\mesh_common\mesh\libraries\CSR102x_A06\libcsrmesh.a(csr_mesh_group_model.o)
                              ..\mesh_common\mesh\libraries\CSR102x_A06\libcsrmesh.a(csr_mesh_mcp.o) (GroupModelInit)
..\mesh_common\mesh\libraries\CSR102x_A06\libcsrmesh.a(csr_mesh_large_num.o)
                              ..\mesh_common\mesh\libraries\CSR102x_A06\libcsrmesh.a(csr_mesh_ec_math.o) (___libcsrmesh_161)
..\mesh_common\mesh\libraries\CSR102x_A06\libcsrmesh.a(csr_mesh_sha_add_to_cache.o)
                              ..\mesh_common\mesh\libraries\CSR102x_A06\libcsrmesh.a(csr_mesh_sha256_get_results.o) (___libcsrmesh_286)
..\mesh_common\mesh\libraries\CSR102x_A06\libcsrmesh.a(csr_mesh_sha256_calc_ith_hash_val.o)
                              ..\mesh_common\mesh\libraries\CSR102x_A06\libcsrmesh.a(csr_mesh_sha256_process_data.o) (___libcsrmesh_292)
..\mesh_common\mesh\libraries\CSR102x_A06\libextension_client.a(extension_client_exception.o)
                              depend_Debug_CSR102x_A06\extension_model_handler.o (ExtensionClientSetupOpcodeList)
..\mesh_common\mesh\libraries\CSR102x_A06\libextension_server.a(extension_model.o)
                              depend_Debug_CSR102x_A06\extension_model_handler.o (ExtensionModelInit)
..\mesh_common\mesh\libraries\CSR102x_A06\libextension_server.a(extension_server_exception.o)
                              depend_Debug_CSR102x_A06\extension_model_handler.o (ExtensionServerSetupOpcodeList)
C:\CSR102x_SDK-3.1.1\tools\lib\CSR102x_A06\libgatt_lib_ram.a(gatt_init.o)
                              depend_Debug_CSR102x_A06\cm_common.o (GattInit)
C:\CSR102x_SDK-3.1.1\tools\lib\CSR102x_A06\libgatt_lib_ram.a(gatt_exchange_mtu_rsp_api.o)
                              depend_Debug_CSR102x_A06\cm_private.o (GattExchangeMtuRsp)
C:\CSR102x_SDK-3.1.1\tools\lib\CSR102x_A06\libgatt_lib_ram.a(sm_ram.o)
                              depend_Debug_CSR102x_A06\cm_hal.o (SMInit)
C:\CSR102x_SDK-3.1.1\tools\lib\CSR102x_A06\libgatt_lib_ram.a(sm_key_req_api.o)
                              depend_Debug_CSR102x_A06\cm_hal.o (SMKeyRequestRsp)
C:\CSR102x_SDK-3.1.1\tools\lib\CSR102x_A06\libgatt_lib_ram.a(sm_div_approval_api.o)
                              depend_Debug_CSR102x_A06\cm_hal.o (SMDivApprovalRsp)
C:\CSR102x_SDK-3.1.1\tools\lib\CSR102x_A06\libgatt_lib_ram.a(sm_pairing_auth_api.o)
                              depend_Debug_CSR102x_A06\cm_hal.o (SMPairingAuthRsp)
C:\CSR102x_SDK-3.1.1\tools\lib\CSR102x_A06\libgatt_lib_ram.a(sm_ltk_api.o)
                              depend_Debug_CSR102x_A06\cm_hal.o (SMLongTermKeyRsp)
C:\CSR102x_SDK-3.1.1\tools\lib\CSR102x_A06\libgatt_lib_ram.a(bletest.o)
                              depend_Debug_CSR102x_A06\main_app.o (DirectTestExtended)
C:\CSR102x_SDK-3.1.1\tools\lib\CSR102x_A06\libgatt_lib_ram.a(patch_uart.o)
                              depend_Debug_CSR102x_A06\UARTMCU.o (UartRead)
C:\CSR102x_SDK-3.1.1\tools\lib\CSR102x_A06\libgatt_lib_ram.a(patch_flashheart_d06.o)
                              (hw_patch)
C:\CSR102x_SDK-3.1.1\tools\lib\CSR102x_A06\libgatt_lib_ram.a(id_ram.o)
                              (ram_build_identifier_string)
C:\CSR102x_SDK-3.1.1\tools\lib\CSR102x_A06\libgatt_lib_ram.a(sw_patch_ram.o)
                              C:\CSR102x_SDK-3.1.1\tools\lib\CSR102x_A06\libgatt_lib_ram.a(patch_uart.o) (__PATCH__ZERO_)
C:\CSR102x_SDK-3.1.1\tools\lib\CSR102x_A06\libgatt_lib_ram.a(configstore_api.o)
                              depend_Debug_CSR102x_A06\gaia_otau.o (ConfigStoreReadKey)
C:\CSR102x_SDK-3.1.1\tools\lib\CSR102x_A06\libgatt_lib_ram.a(userstore_api.o)
                              depend_Debug_CSR102x_A06\nvm_access.o (Userstore_Write)
C:\CSR102x_SDK-3.1.1\tools\lib\CSR102x_A06\libgatt_lib_ram.a(app_proxy_crt.o)
                              (_app_store_header_fw_init)
C:\CSR102x_SDK-3.1.1\tools\lib\CSR102x_A06\libgatt_lib_ram.a(patch_store_update_msg_handler.o)
                              C:\CSR102x_SDK-3.1.1\tools\lib\CSR102x_A06\libgatt_lib_ram.a(sw_patch_ram.o) (___libgatt_lib_db_5615)
C:\CSR102x_SDK-3.1.1\tools\lib\CSR102x_A06\libgatt_lib_ram.a(patch_sysop_pmu_fht.o)
                              C:\CSR102x_SDK-3.1.1\tools\lib\CSR102x_A06\libgatt_lib_ram.a(sw_patch_ram.o) (___libgatt_lib_db_5628)
C:\CSR102x_SDK-3.1.1\tools\lib\CSR102x_A06\libgatt_lib_ram.a(patch_bleinit.o)
                              C:\CSR102x_SDK-3.1.1\tools\lib\CSR102x_A06\libgatt_lib_ram.a(sw_patch_ram.o) (___libgatt_lib_db_5648)
C:\CSR102x_SDK-3.1.1\tools\lib\CSR102x_A06\libgatt_lib_ram.a(patch_blerx.o)
                              C:\CSR102x_SDK-3.1.1\tools\lib\CSR102x_A06\libgatt_lib_ram.a(sw_patch_ram.o) (___libgatt_lib_db_5651)
C:\CSR102x_SDK-3.1.1\tools\lib\CSR102x_A06\libgatt_lib_ram.a(patch_blelo.o)
                              C:\CSR102x_SDK-3.1.1\tools\lib\CSR102x_A06\libgatt_lib_ram.a(sw_patch_ram.o) (___libgatt_lib_db_5656)
C:\CSR102x_SDK-3.1.1\tools\lib\CSR102x_A06\libgatt_lib_ram.a(patch_bletx.o)
                              C:\CSR102x_SDK-3.1.1\tools\lib\CSR102x_A06\libgatt_lib_ram.a(sw_patch_ram.o) (___libgatt_lib_db_5662)
C:\CSR102x_SDK-3.1.1\tools\lib\CSR102x_A06\libgatt_lib_ram.a(patch_hal_bleradio.o)
                              C:\CSR102x_SDK-3.1.1\tools\lib\CSR102x_A06\libgatt_lib_ram.a(patch_bleinit.o) (___libgatt_lib_db_5665)
C:\CSR102x_SDK-3.1.1\tools\lib\CSR102x_A06\libgatt_lib_ram.a(strncpy.o)
                              depend_Debug_CSR102x_A06\cm_hal.o (StrNCopy)
C:\CSR102x_SDK-3.1.1\tools\lib\CSR102x_A06\libgatt_lib_ram.a(patch_bg_ints.o)
                              C:\CSR102x_SDK-3.1.1\tools\lib\CSR102x_A06\libgatt_lib_ram.a(sw_patch_ram.o) (___libgatt_lib_db_5670)
C:\CSR102x_SDK-3.1.1\tools\lib\CSR102x_A06\libgatt_lib_ram.a(patch_ls.o)
                              C:\CSR102x_SDK-3.1.1\tools\lib\CSR102x_A06\libgatt_lib_ram.a(sw_patch_ram.o) (___libgatt_lib_db_5560)
C:\CSR102x_SDK-3.1.1\tools\lib\CSR102x_A06\libgatt_lib_ram.a(patch_att.o)
                              C:\CSR102x_SDK-3.1.1\tools\lib\CSR102x_A06\libgatt_lib_ram.a(sw_patch_ram.o) (___libgatt_lib_db_5563)
C:\CSR102x_SDK-3.1.1\tools\lib\CSR102x_A06\libgatt_lib_ram.a(patch_george_interrupt.o)
                              C:\CSR102x_SDK-3.1.1\tools\lib\CSR102x_A06\libgatt_lib_ram.a(sw_patch_ram.o) (___libgatt_lib_db_5570)
C:\CSR102x_SDK-3.1.1\tools\lib\CSR102x_A06\libgatt_lib_ram.a(patch_george.o)
                              C:\CSR102x_SDK-3.1.1\tools\lib\CSR102x_A06\libgatt_lib_ram.a(sw_patch_ram.o) (___libgatt_lib_db_5576)
C:\CSR102x_SDK-3.1.1\tools\lib\CSR102x_A06\libgatt_lib_ram.a(patch_george_reset.o)
                              C:\CSR102x_SDK-3.1.1\tools\lib\CSR102x_A06\libgatt_lib_ram.a(sw_patch_ram.o) (___libgatt_lib_db_5580)
C:\CSR102x_SDK-3.1.1\tools\lib\CSR102x_A06\libgatt_lib_ram.a(patch_george_scheduler.o)
                              C:\CSR102x_SDK-3.1.1\tools\lib\CSR102x_A06\libgatt_lib_ram.a(patch_george_interrupt.o) (___libgatt_lib_db_5583)
C:\CSR102x_SDK-3.1.1\tools\lib\CSR102x_A06\libgatt_lib_ram.a(patch_george_acl_tx_buffers.o)
                              C:\CSR102x_SDK-3.1.1\tools\lib\CSR102x_A06\libgatt_lib_ram.a(patch_bg_ints.o) (___libgatt_lib_db_5586)
C:\CSR102x_SDK-3.1.1\tools\lib\CSR102x_A06\libgatt_lib_ram.a(patch_george_test.o)
                              C:\CSR102x_SDK-3.1.1\tools\lib\CSR102x_A06\libgatt_lib_ram.a(sw_patch_ram.o) (___libgatt_lib_db_5591)
C:\CSR102x_SDK-3.1.1\tools\lib\CSR102x_A06\libgatt_lib_ram.a(patch_george_rssi.o)
                              C:\CSR102x_SDK-3.1.1\tools\lib\CSR102x_A06\libgatt_lib_ram.a(sw_patch_ram.o) (___libgatt_lib_db_5596)
C:\CSR102x_SDK-3.1.1\tools\lib\CSR102x_A06\libgatt_lib_ram.a(patch_reset.o)
                              C:\CSR102x_SDK-3.1.1\tools\lib\CSR102x_A06\libgatt_lib_ram.a(sw_patch_ram.o) (___libgatt_lib_db_5601)
C:\CSR102x_SDK-3.1.1\tools\lib\CSR102x_A06\libgatt_lib_ram.a(patch_background.o)
                              C:\CSR102x_SDK-3.1.1\tools\lib\CSR102x_A06\libgatt_lib_ram.a(sw_patch_ram.o) (___libgatt_lib_db_5604)
C:\CSR102x_SDK-3.1.1\tools\lib\CSR102x_A06\libgatt_lib_ram.a(patch_wd.o)
                              C:\CSR102x_SDK-3.1.1\tools\lib\CSR102x_A06\libgatt_lib_ram.a(patch_background.o) (___libgatt_lib_db_5611)
C:\CSR102x_SDK-3.1.1\tools\lib\CSR102x_A06\libgatt_lib_ram.a(app_proxy_init.o)
                              C:\CSR102x_SDK-3.1.1\tools\lib\CSR102x_A06\libgatt_lib_ram.a(app_proxy_crt.o) (___libgatt_lib_db_2336)
C:\CSR102x_SDK-3.1.1\tools\lib\CSR102x_A06\libgatt_lib_ram.a(profiling.o)
                              C:\CSR102x_SDK-3.1.1\tools\lib\CSR102x_A06\libgatt_lib_ram.a(patch_background.o) (profiling_enabled)
C:\CSR102x_SDK-3.1.1\tools\lib\CSR102x_A06\libgatt_lib_ram.a(patch_hal_uart.o)
                              C:\CSR102x_SDK-3.1.1\tools\lib\CSR102x_A06\libgatt_lib_ram.a(patch_reset.o) (___libgatt_lib_db_5625)
C:\CSR102x_SDK-3.1.1\tools\lib\CSR102x_A06\libgatt_lib_ram.a(patch_sysop_fosc_trim.o)
                              C:\CSR102x_SDK-3.1.1\tools\lib\CSR102x_A06\libgatt_lib_ram.a(patch_bg_ints.o) (___libgatt_lib_db_5631)
C:\CSR102x_SDK-3.1.1\tools\lib\CSR102x_A06\libgatt_lib_ram.a(patch_smem.o)
                              C:\CSR102x_SDK-3.1.1\tools\lib\CSR102x_A06\libgatt_lib_ram.a(patch_reset.o) (___libgatt_lib_db_5633)
C:\CSR102x_SDK-3.1.1\tools\lib\CSR102x_A06\libgatt_lib_ram.a(patch_activity.o)
                              C:\CSR102x_SDK-3.1.1\tools\lib\CSR102x_A06\libgatt_lib_ram.a(patch_george_rssi.o) (BtActivityAntennaSwitchOpened)
C:\CSR102x_SDK-3.1.1\tools\lib\CSR102x_A06\libgatt_lib_ram.a(hw_patch_install.o)
                              C:\CSR102x_SDK-3.1.1\tools\lib\CSR102x_A06\libgatt_lib_ram.a(app_proxy_init.o) (___libgatt_lib_db_2045)

Allocating common symbols
Common symbol       size              file

g_mesh_data         0x10              ..\mesh_common\mesh\libraries\CSR102x_A06\libcsrmesh.a(csr_mesh.o)
g_cskey_flags       0x1               depend_Debug_CSR102x_A06\core_mesh_handler.o
patch_last_antenna  0x4               C:\CSR102x_SDK-3.1.1\tools\lib\CSR102x_A06\libgatt_lib_ram.a(patch_george_rssi.o)
uuid                0x8               depend_Debug_CSR102x_A06\scan_handler.o
location_id         0x1               depend_Debug_CSR102x_A06\advertisement_handler.o
DATA                0x1               depend_Debug_CSR102x_A06\main_app.o
g_mesh_handler_data
                    0xa               depend_Debug_CSR102x_A06\advertisement_handler.o
dimmer_hdlr_data    0x1e              depend_Debug_CSR102x_A06\extension_model_handler.o
extension_model_groups
                    0x154             depend_Debug_CSR102x_A06\attention_model_handler.o
scanning_ongoing    0x1               depend_Debug_CSR102x_A06\connection_handler.o
old_version         0x1               depend_Debug_CSR102x_A06\app_otau_handler.o
clash_status        0x1               C:\CSR102x_SDK-3.1.1\tools\lib\CSR102x_A06\libgatt_lib_ram.a(patch_george_interrupt.o)
g_app_nvm_offset    0x1               depend_Debug_CSR102x_A06\core_mesh_handler.o
lot_announce_data   0x7               depend_Debug_CSR102x_A06\app_otau_client_handler.o
g_app_nvm_fresh     0x1               depend_Debug_CSR102x_A06\core_mesh_handler.o
le_params           0xf               depend_Debug_CSR102x_A06\app_mesh_handler.o
last2digit          0x1               depend_Debug_CSR102x_A06\advertisement_handler.o
tx_queue_buffer     0x90              depend_Debug_CSR102x_A06\app_mesh_handler.o
fosc_freq_old_khz   0x2               C:\CSR102x_SDK-3.1.1\tools\lib\CSR102x_A06\libgatt_lib_ram.a(patch_sysop_fosc_trim.o)
tId                 0x1               depend_Debug_CSR102x_A06\ONESECOND.o
g_extension_model_data
                    0x9               ..\mesh_common\mesh\libraries\CSR102x_A06\libextension_server.a(extension_model.o)
lot_model_groups    0x154             depend_Debug_CSR102x_A06\attention_model_handler.o
associationstate    0x1               depend_Debug_CSR102x_A06\advertisement_handler.o
user_read_callback  0x2               depend_Debug_CSR102x_A06\UARTMCU.o
otastatus           0x1               depend_Debug_CSR102x_A06\gaia_otau.o
g_le_bearer_data    0xa               ..\mesh_common\mesh\libraries\CSR102x_A06\libcsrmesh.a(csr_mesh_bearer.o)
g_mesh_context_data
                    0x6f              ..\mesh_common\mesh\libraries\CSR102x_A06\libcsrmesh.a(csr_mesh.o)
ad_data             0x1f              depend_Debug_CSR102x_A06\advertisement_handler.o
g_device_name       0x9               depend_Debug_CSR102x_A06\gap_service.o
u_queue             0x8c              depend_Debug_CSR102x_A06\uart_queue.o
data_num            0x1               depend_Debug_CSR102x_A06\UARTMCU.o
mtl_operational_buffer
                    0x22              ..\mesh_common\mesh\libraries\CSR102x_A06\libcsrmesh.a(csr_mesh_mtl.o)
advert_timer_value  0x2               depend_Debug_CSR102x_A06\advertisement_handler.o
profiling_total_sleep_time
                    0x2               C:\CSR102x_SDK-3.1.1\tools\lib\CSR102x_A06\libgatt_lib_ram.a(profiling.o)
scan_rsp_data       0x1f              depend_Debug_CSR102x_A06\advertisement_handler.o
patch_bg_ints       0x1               C:\CSR102x_SDK-3.1.1\tools\lib\CSR102x_A06\libgatt_lib_ram.a(patch_bg_ints.o)
gatt_advert_tid     0x1               depend_Debug_CSR102x_A06\advertisement_handler.o
g_device_hash       0x8               ..\mesh_common\mesh\libraries\CSR102x_A06\libcsrmesh.a(csr_mesh_masp_mcp_common.o)
secureKeyInfo       0xb               depend_Debug_CSR102x_A06\nvm_access.o
g_gatt_bearer_data  0xb               ..\mesh_common\mesh\libraries\CSR102x_A06\libcsrmesh.a(csr_mesh_bearer.o)
DataRX              0xf               depend_Debug_CSR102x_A06\main_app.o
cached_uuid         0x8               depend_Debug_CSR102x_A06\main_app.o
g_mesh_svc_data     0x1e              depend_Debug_CSR102x_A06\mesh_control_service.o
switch_enabled      0x1               C:\CSR102x_SDK-3.1.1\tools\lib\CSR102x_A06\libgatt_lib_ram.a(patch_activity.o)
temp_uuid           0x8               depend_Debug_CSR102x_A06\scan_handler.o
last2digit1         0x1               depend_Debug_CSR102x_A06\advertisement_handler.o
fosc_frequency_delta
                    0x1               C:\CSR102x_SDK-3.1.1\tools\lib\CSR102x_A06\libgatt_lib_ram.a(patch_sysop_fosc_trim.o)
last2digit2         0x1               depend_Debug_CSR102x_A06\advertisement_handler.o
last_switch_val     0x2               C:\CSR102x_SDK-3.1.1\tools\lib\CSR102x_A06\libgatt_lib_ram.a(patch_sysop_fosc_trim.o)

Discarded input sections

 .text          0x00000000        0x0 depend_Debug_CSR102x_A06\app_gatt_db.o
 .data          0x00000000        0x0 depend_Debug_CSR102x_A06\app_gatt_db.o
 .bss           0x00000000        0x0 depend_Debug_CSR102x_A06\app_gatt_db.o
 .text          0x00000000        0x0 depend_Debug_CSR102x_A06\gaia_client.o
 .data          0x00000000        0x0 depend_Debug_CSR102x_A06\gaia_client.o
 .bss           0x00000000        0x0 depend_Debug_CSR102x_A06\gaia_client.o
 .text          0x00000000        0x0 depend_Debug_CSR102x_A06\gaia_client_service.o
 .data          0x00000000        0x0 depend_Debug_CSR102x_A06\gaia_client_service.o
 .bss           0x00000000        0x0 depend_Debug_CSR102x_A06\gaia_client_service.o
 .text.GaiaReadResponseEndpoint
                0x00000000        0x0 depend_Debug_CSR102x_A06\gaia_client_service.o
 .text          0x00000000        0x0 depend_Debug_CSR102x_A06\gaia_otau_client.o
 .data          0x00000000        0x0 depend_Debug_CSR102x_A06\gaia_otau_client.o
 .bss           0x00000000        0x0 depend_Debug_CSR102x_A06\gaia_otau_client.o
 .text          0x00000000        0x0 depend_Debug_CSR102x_A06\conn_param_update.o
 .data          0x00000000        0x0 depend_Debug_CSR102x_A06\conn_param_update.o
 .bss           0x00000000        0x0 depend_Debug_CSR102x_A06\conn_param_update.o
 .text          0x00000000        0x0 depend_Debug_CSR102x_A06\nvm_access.o
 .data          0x00000000        0x0 depend_Debug_CSR102x_A06\nvm_access.o
 .bss           0x00000000        0x0 depend_Debug_CSR102x_A06\nvm_access.o
 .text.Nvm_SetMemType
                0x00000000        0x0 depend_Debug_CSR102x_A06\nvm_access.o
 .text          0x00000000        0x0 depend_Debug_CSR102x_A06\cm_common.o
 .data          0x00000000        0x0 depend_Debug_CSR102x_A06\cm_common.o
 .bss           0x00000000        0x0 depend_Debug_CSR102x_A06\cm_common.o
 .text.CMGetDeviceIdFromBDAddress
                0x00000000        0x0 depend_Debug_CSR102x_A06\cm_common.o
 .text.CMHoldTxEvent
                0x00000000        0x0 depend_Debug_CSR102x_A06\cm_common.o
 .text.CMRemoveBond
                0x00000000        0x0 depend_Debug_CSR102x_A06\cm_common.o
 .text.CMGetConnectedDevices
                0x00000000        0x0 depend_Debug_CSR102x_A06\cm_common.o
 .text.CMStreamGattSink
                0x00000000        0x0 depend_Debug_CSR102x_A06\cm_common.o
 .text.CMAddWhitelistDevice
                0x00000000        0x0 depend_Debug_CSR102x_A06\cm_common.o
 .text.CMRemoveWhitelistDevice
                0x00000000        0x0 depend_Debug_CSR102x_A06\cm_common.o
 .text.CMMatchConnectedAddress
                0x00000000        0x0 depend_Debug_CSR102x_A06\cm_common.o
 .text.CMSetRandomAddress
                0x00000000        0x0 depend_Debug_CSR102x_A06\cm_common.o
 .text          0x00000000        0x0 depend_Debug_CSR102x_A06\cm_hal.o
 .data          0x00000000        0x0 depend_Debug_CSR102x_A06\cm_hal.o
 .bss           0x00000000        0x0 depend_Debug_CSR102x_A06\cm_hal.o
 .text.HALParseConnParamUpdate
                0x00000000        0x0 depend_Debug_CSR102x_A06\cm_hal.o
 .text.HALGapSetCentralMode
                0x00000000        0x0 depend_Debug_CSR102x_A06\cm_hal.o
 .text.HALStartEncryption
                0x00000000        0x0 depend_Debug_CSR102x_A06\cm_hal.o
 .text.HALSecuritySetConfiguration
                0x00000000        0x0 depend_Debug_CSR102x_A06\cm_hal.o
 .text.HALSendValueIndication
                0x00000000        0x0 depend_Debug_CSR102x_A06\cm_hal.o
 .text.HALSendAuthRsp
                0x00000000        0x0 depend_Debug_CSR102x_A06\cm_hal.o
 .text.HALSendPasskeyRsp
                0x00000000        0x0 depend_Debug_CSR102x_A06\cm_hal.o
 .text          0x00000000        0x0 depend_Debug_CSR102x_A06\cm_private.o
 .data          0x00000000        0x0 depend_Debug_CSR102x_A06\cm_private.o
 .bss           0x00000000        0x0 depend_Debug_CSR102x_A06\cm_private.o
 .text.CMGetDeviceEncryptState
                0x00000000        0x0 depend_Debug_CSR102x_A06\cm_private.o
 .text          0x00000000        0x0 depend_Debug_CSR102x_A06\cm_security.o
 .data          0x00000000        0x0 depend_Debug_CSR102x_A06\cm_security.o
 .bss           0x00000000        0x0 depend_Debug_CSR102x_A06\cm_security.o
 .text.CMSecuritySetConfiguration
                0x00000000        0x0 depend_Debug_CSR102x_A06\cm_security.o
 .text.CMGetBondedDevices
                0x00000000        0x0 depend_Debug_CSR102x_A06\cm_security.o
 .text.CMGetBondedDevice
                0x00000000        0x0 depend_Debug_CSR102x_A06\cm_security.o
 .text.CMGetBondedDeviceFromBondId
                0x00000000        0x0 depend_Debug_CSR102x_A06\cm_security.o
 .text.CMIsBondIdValid
                0x00000000        0x0 depend_Debug_CSR102x_A06\cm_security.o
 .text.CMGetBondedDeviceRole
                0x00000000        0x0 depend_Debug_CSR102x_A06\cm_security.o
 .text.CMGetMaxBondedDevices
                0x00000000        0x0 depend_Debug_CSR102x_A06\cm_security.o
 .text.CMStartEncryption
                0x00000000        0x0 depend_Debug_CSR102x_A06\cm_security.o
 .text.CMBondingAuthResponse
                0x00000000        0x0 depend_Debug_CSR102x_A06\cm_security.o
 .text.CMPassKeyInputResponse
                0x00000000        0x0 depend_Debug_CSR102x_A06\cm_security.o
 .text.CMStoreFactoryBond
                0x00000000        0x0 depend_Debug_CSR102x_A06\cm_security.o
 .text.CMNotifyFactoryBond
                0x00000000        0x0 depend_Debug_CSR102x_A06\cm_security.o
 .text          0x00000000        0x0 depend_Debug_CSR102x_A06\cm_server.o
 .data          0x00000000        0x0 depend_Debug_CSR102x_A06\cm_server.o
 .bss           0x00000000        0x0 depend_Debug_CSR102x_A06\cm_server.o
 .text.CMSendValueIndication
                0x00000000        0x0 depend_Debug_CSR102x_A06\cm_server.o
 .text          0x00000000        0x0 depend_Debug_CSR102x_A06\cm_observer.o
 .data          0x00000000        0x0 depend_Debug_CSR102x_A06\cm_observer.o
 .bss           0x00000000        0x0 depend_Debug_CSR102x_A06\cm_observer.o
 .text.CMObserverSetScanState
                0x00000000        0x0 depend_Debug_CSR102x_A06\cm_observer.o
 .text.CMObserverGetScanState
                0x00000000        0x0 depend_Debug_CSR102x_A06\cm_observer.o
 .text.CMObserverSetScanParams
                0x00000000        0x0 depend_Debug_CSR102x_A06\cm_observer.o
 .text.CMObserverStartScanning
                0x00000000        0x0 depend_Debug_CSR102x_A06\cm_observer.o
 .text.CMObserverStartScanningExt
                0x00000000        0x0 depend_Debug_CSR102x_A06\cm_observer.o
 .text.CMObserverStopScanning
                0x00000000        0x0 depend_Debug_CSR102x_A06\cm_observer.o
 .text          0x00000000        0x0 depend_Debug_CSR102x_A06\cm_peripheral.o
 .data          0x00000000        0x0 depend_Debug_CSR102x_A06\cm_peripheral.o
 .bss           0x00000000        0x0 depend_Debug_CSR102x_A06\cm_peripheral.o
 .text.CMPeripheralSetAdvertParams
                0x00000000        0x0 depend_Debug_CSR102x_A06\cm_peripheral.o
 .text.CMPeripheralStartAdvertising
                0x00000000        0x0 depend_Debug_CSR102x_A06\cm_peripheral.o
 .text.CMPeripheralStopAdvertising
                0x00000000        0x0 depend_Debug_CSR102x_A06\cm_peripheral.o
 .text.CMPeripheralRemovePairing
                0x00000000        0x0 depend_Debug_CSR102x_A06\cm_peripheral.o
 .text          0x00000000        0x0 depend_Debug_CSR102x_A06\cm_central.o
 .data          0x00000000        0x0 depend_Debug_CSR102x_A06\cm_central.o
 .bss           0x00000000        0x0 depend_Debug_CSR102x_A06\cm_central.o
 .text.CMCentralSetScanParams
                0x00000000        0x0 depend_Debug_CSR102x_A06\cm_central.o
 .text.CMCentralStartScanning
                0x00000000        0x0 depend_Debug_CSR102x_A06\cm_central.o
 .text.CMCentralStartScanningExt
                0x00000000        0x0 depend_Debug_CSR102x_A06\cm_central.o
 .text.CMConfigureRxTimingReport
                0x00000000        0x0 depend_Debug_CSR102x_A06\cm_central.o
 .text          0x00000000        0x0 depend_Debug_CSR102x_A06\cm_client.o
 .data          0x00000000        0x0 depend_Debug_CSR102x_A06\cm_client.o
 .bss           0x00000000        0x0 depend_Debug_CSR102x_A06\cm_client.o
 .text.CMClientReadRequest
                0x00000000        0x0 depend_Debug_CSR102x_A06\cm_client.o
 .text.CMIsClientBusy
                0x00000000        0x0 depend_Debug_CSR102x_A06\cm_client.o
 .text          0x00000000        0x0 depend_Debug_CSR102x_A06\battery_hw.o
 .data          0x00000000        0x0 depend_Debug_CSR102x_A06\battery_hw.o
 .bss           0x00000000        0x0 depend_Debug_CSR102x_A06\battery_hw.o
 .text.CheckLowBatteryVoltage
                0x00000000        0x0 depend_Debug_CSR102x_A06\battery_hw.o
 .text.GetBatteryState
                0x00000000        0x0 depend_Debug_CSR102x_A06\battery_hw.o
 .text          0x00000000        0x0 depend_Debug_CSR102x_A06\fast_pwm.o
 .data          0x00000000        0x0 depend_Debug_CSR102x_A06\fast_pwm.o
 .bss           0x00000000        0x0 depend_Debug_CSR102x_A06\fast_pwm.o
 .text          0x00000000        0x0 depend_Debug_CSR102x_A06\iot_hw.o
 .data          0x00000000        0x0 depend_Debug_CSR102x_A06\iot_hw.o
 .bss           0x00000000        0x0 depend_Debug_CSR102x_A06\iot_hw.o
 .bss.pio_open  0x00000000        0x0 depend_Debug_CSR102x_A06\iot_hw.o
 .text.IOTLightControlDeviceInit
                0x00000000        0x0 depend_Debug_CSR102x_A06\iot_hw.o
 .text.IOTLightControlDevicePower
                0x00000000        0x0 depend_Debug_CSR102x_A06\iot_hw.o
 .text.IOTLightControlDeviceSetLevel
                0x00000000        0x0 depend_Debug_CSR102x_A06\iot_hw.o
 .text.IOTLightControlDeviceSetColor
                0x00000000        0x0 depend_Debug_CSR102x_A06\iot_hw.o
 .text.IOTLightControlDeviceBlink
                0x00000000        0x0 depend_Debug_CSR102x_A06\iot_hw.o
 .bss.pwm_ramp_red
                0x00000000        0x0 depend_Debug_CSR102x_A06\iot_hw.o
 .bss.pwm_ramp_green
                0x00000000        0x0 depend_Debug_CSR102x_A06\iot_hw.o
 .bss.pwm_ramp_blue
                0x00000000        0x0 depend_Debug_CSR102x_A06\iot_hw.o
 .text          0x00000000        0x0 depend_Debug_CSR102x_A06\csr_mesh_ps_ifce.o
 .data          0x00000000        0x0 depend_Debug_CSR102x_A06\csr_mesh_ps_ifce.o
 .bss           0x00000000        0x0 depend_Debug_CSR102x_A06\csr_mesh_ps_ifce.o
 .text.CSRmeshPsReadWithOffset
                0x00000000        0x0 depend_Debug_CSR102x_A06\csr_mesh_ps_ifce.o
 .text.CSRmeshPsDeInit
                0x00000000        0x0 depend_Debug_CSR102x_A06\csr_mesh_ps_ifce.o
 .text          0x00000000        0x0 depend_Debug_CSR102x_A06\attention_model_handler.o
 .data          0x00000000        0x0 depend_Debug_CSR102x_A06\attention_model_handler.o
 .bss           0x00000000        0x0 depend_Debug_CSR102x_A06\attention_model_handler.o
 .text          0x00000000        0x0 depend_Debug_CSR102x_A06\battery_model_handler.o
 .data          0x00000000        0x0 depend_Debug_CSR102x_A06\battery_model_handler.o
 .bss           0x00000000        0x0 depend_Debug_CSR102x_A06\battery_model_handler.o
 .text          0x00000000        0x0 depend_Debug_CSR102x_A06\core_mesh_handler.o
 .data          0x00000000        0x0 depend_Debug_CSR102x_A06\core_mesh_handler.o
 .bss           0x00000000        0x0 depend_Debug_CSR102x_A06\core_mesh_handler.o
 .text          0x00000000        0x0 depend_Debug_CSR102x_A06\data_model_handler.o
 .data          0x00000000        0x0 depend_Debug_CSR102x_A06\data_model_handler.o
 .bss           0x00000000        0x0 depend_Debug_CSR102x_A06\data_model_handler.o
 .text          0x00000000        0x0 depend_Debug_CSR102x_A06\light_model_handler.o
 .data          0x00000000        0x0 depend_Debug_CSR102x_A06\light_model_handler.o
 .bss           0x00000000        0x0 depend_Debug_CSR102x_A06\light_model_handler.o
 .text          0x00000000        0x0 depend_Debug_CSR102x_A06\power_model_handler.o
 .data          0x00000000        0x0 depend_Debug_CSR102x_A06\power_model_handler.o
 .bss           0x00000000        0x0 depend_Debug_CSR102x_A06\power_model_handler.o
 .text          0x00000000        0x0 depend_Debug_CSR102x_A06\app_util.o
 .data          0x00000000        0x0 depend_Debug_CSR102x_A06\app_util.o
 .bss           0x00000000        0x0 depend_Debug_CSR102x_A06\app_util.o
 .text          0x00000000        0x0 depend_Debug_CSR102x_A06\connection_handler.o
 .data          0x00000000        0x0 depend_Debug_CSR102x_A06\connection_handler.o
 .bss           0x00000000        0x0 depend_Debug_CSR102x_A06\connection_handler.o
 .text.GetDevicePairingStatus
                0x00000000        0x0 depend_Debug_CSR102x_A06\connection_handler.o
 .text          0x00000000        0x0 depend_Debug_CSR102x_A06\advertisement_handler.o
 .data          0x00000000        0x0 depend_Debug_CSR102x_A06\advertisement_handler.o
 .bss           0x00000000        0x0 depend_Debug_CSR102x_A06\advertisement_handler.o
 .text          0x00000000        0x0 depend_Debug_CSR102x_A06\time_model_handler.o
 .data          0x00000000        0x0 depend_Debug_CSR102x_A06\time_model_handler.o
 .bss           0x00000000        0x0 depend_Debug_CSR102x_A06\time_model_handler.o
 .text          0x00000000        0x0 depend_Debug_CSR102x_A06\action_model_handler.o
 .data          0x00000000        0x0 depend_Debug_CSR102x_A06\action_model_handler.o
 .bss           0x00000000        0x0 depend_Debug_CSR102x_A06\action_model_handler.o
 .text          0x00000000        0x0 depend_Debug_CSR102x_A06\largeobjecttransfer_model_handler.o
 .data          0x00000000        0x0 depend_Debug_CSR102x_A06\largeobjecttransfer_model_handler.o
 .bss           0x00000000        0x0 depend_Debug_CSR102x_A06\largeobjecttransfer_model_handler.o
 .text          0x00000000        0x0 depend_Debug_CSR102x_A06\asset_model_handler.o
 .data          0x00000000        0x0 depend_Debug_CSR102x_A06\asset_model_handler.o
 .bss           0x00000000        0x0 depend_Debug_CSR102x_A06\asset_model_handler.o
 .text          0x00000000        0x0 depend_Debug_CSR102x_A06\tracker_model_handler.o
 .data          0x00000000        0x0 depend_Debug_CSR102x_A06\tracker_model_handler.o
 .bss           0x00000000        0x0 depend_Debug_CSR102x_A06\tracker_model_handler.o
 .text          0x00000000        0x0 depend_Debug_CSR102x_A06\app_otau_handler.o
 .data          0x00000000        0x0 depend_Debug_CSR102x_A06\app_otau_handler.o
 .bss           0x00000000        0x0 depend_Debug_CSR102x_A06\app_otau_handler.o
 .text          0x00000000        0x0 depend_Debug_CSR102x_A06\scan_handler.o
 .data          0x00000000        0x0 depend_Debug_CSR102x_A06\scan_handler.o
 .bss           0x00000000        0x0 depend_Debug_CSR102x_A06\scan_handler.o
 .text.scanTimeoutHandler
                0x00000000        0x0 depend_Debug_CSR102x_A06\scan_handler.o
 .text.StartScanning
                0x00000000        0x0 depend_Debug_CSR102x_A06\scan_handler.o
 COMMON         0x00000000        0x0 depend_Debug_CSR102x_A06\scan_handler.o
 .text          0x00000000        0x0 depend_Debug_CSR102x_A06\app_otau_client_handler.o
 .data          0x00000000        0x0 depend_Debug_CSR102x_A06\app_otau_client_handler.o
 .bss           0x00000000        0x0 depend_Debug_CSR102x_A06\app_otau_client_handler.o
 .text          0x00000000        0x0 depend_Debug_CSR102x_A06\extension_model_handler.o
 .data          0x00000000        0x0 depend_Debug_CSR102x_A06\extension_model_handler.o
 .bss           0x00000000        0x0 depend_Debug_CSR102x_A06\extension_model_handler.o
 COMMON         0x00000000        0x0 depend_Debug_CSR102x_A06\extension_model_handler.o
 .text          0x00000000        0x0 depend_Debug_CSR102x_A06\gap_service.o
 .data          0x00000000        0x0 depend_Debug_CSR102x_A06\gap_service.o
 .bss           0x00000000        0x0 depend_Debug_CSR102x_A06\gap_service.o
 .text.readDataFromNVM
                0x00000000        0x0 depend_Debug_CSR102x_A06\gap_service.o
 .text.GapInitServerService
                0x00000000        0x0 depend_Debug_CSR102x_A06\gap_service.o
 .text          0x00000000        0x0 depend_Debug_CSR102x_A06\gatt_service.o
 .data          0x00000000        0x0 depend_Debug_CSR102x_A06\gatt_service.o
 .bss           0x00000000        0x0 depend_Debug_CSR102x_A06\gatt_service.o
 .text.GattInitServerService
                0x00000000        0x0 depend_Debug_CSR102x_A06\gatt_service.o
 .text.GattServiceChangedIndActive
                0x00000000        0x0 depend_Debug_CSR102x_A06\gatt_service.o
 .text          0x00000000        0x0 depend_Debug_CSR102x_A06\mesh_control_service.o
 .data          0x00000000        0x0 depend_Debug_CSR102x_A06\mesh_control_service.o
 .bss           0x00000000        0x0 depend_Debug_CSR102x_A06\mesh_control_service.o
 .text          0x00000000        0x0 depend_Debug_CSR102x_A06\byte_utils.o
 .data          0x00000000        0x0 depend_Debug_CSR102x_A06\byte_utils.o
 .bss           0x00000000        0x0 depend_Debug_CSR102x_A06\byte_utils.o
 .text.GetNBytesFromStream
                0x00000000        0x0 depend_Debug_CSR102x_A06\byte_utils.o
 .text.SetNBytesInStream
                0x00000000        0x0 depend_Debug_CSR102x_A06\byte_utils.o
 .text          0x00000000        0x0 depend_Debug_CSR102x_A06\gaia.o
 .data          0x00000000        0x0 depend_Debug_CSR102x_A06\gaia.o
 .bss           0x00000000        0x0 depend_Debug_CSR102x_A06\gaia.o
 .text.GaiaIsHostConnected
                0x00000000        0x0 depend_Debug_CSR102x_A06\gaia.o
 .text          0x00000000        0x0 depend_Debug_CSR102x_A06\gaia_otau.o
 .data          0x00000000        0x0 depend_Debug_CSR102x_A06\gaia_otau.o
 .bss           0x00000000        0x0 depend_Debug_CSR102x_A06\gaia_otau.o
 .text.GaiaOtauUpgradeProgress
                0x00000000        0x0 depend_Debug_CSR102x_A06\gaia_otau.o
 .text          0x00000000        0x0 depend_Debug_CSR102x_A06\gaia_service.o
 .data          0x00000000        0x0 depend_Debug_CSR102x_A06\gaia_service.o
 .bss           0x00000000        0x0 depend_Debug_CSR102x_A06\gaia_service.o
 .text          0x00000000        0x0 depend_Debug_CSR102x_A06\main_app.o
 .data          0x00000000        0x0 depend_Debug_CSR102x_A06\main_app.o
 .bss           0x00000000        0x0 depend_Debug_CSR102x_A06\main_app.o
 .text          0x00000000        0x0 depend_Debug_CSR102x_A06\app_mesh_handler.o
 .data          0x00000000        0x0 depend_Debug_CSR102x_A06\app_mesh_handler.o
 .bss           0x00000000        0x0 depend_Debug_CSR102x_A06\app_mesh_handler.o
 .text.SetScanDutyCycle
                0x00000000        0x0 depend_Debug_CSR102x_A06\app_mesh_handler.o
 .text.WriteApplicationAndServiceDataToNVM
                0x00000000        0x0 depend_Debug_CSR102x_A06\app_mesh_handler.o
 .text          0x00000000        0x0 depend_Debug_CSR102x_A06\app_hw.o
 .data          0x00000000        0x0 depend_Debug_CSR102x_A06\app_hw.o
 .bss           0x00000000        0x0 depend_Debug_CSR102x_A06\app_hw.o
 .text.LightHardwarePowerControl
                0x00000000        0x0 depend_Debug_CSR102x_A06\app_hw.o
 .text.LightHardwareSetColor
                0x00000000        0x0 depend_Debug_CSR102x_A06\app_hw.o
 .text.LightHardwareSetLevel
                0x00000000        0x0 depend_Debug_CSR102x_A06\app_hw.o
 .text.LightHardwareSetBlink
                0x00000000        0x0 depend_Debug_CSR102x_A06\app_hw.o
 .text          0x00000000        0x0 depend_Debug_CSR102x_A06\ONESECOND.o
 .data          0x00000000        0x0 depend_Debug_CSR102x_A06\ONESECOND.o
 .bss           0x00000000        0x0 depend_Debug_CSR102x_A06\ONESECOND.o
 .text.DELETE   0x00000000        0x0 depend_Debug_CSR102x_A06\ONESECOND.o
 .text.startTimer
                0x00000000        0x0 depend_Debug_CSR102x_A06\ONESECOND.o
 COMMON         0x00000000        0x0 depend_Debug_CSR102x_A06\ONESECOND.o
 .text          0x00000000        0x0 depend_Debug_CSR102x_A06\uart_queue.o
 .data          0x00000000        0x0 depend_Debug_CSR102x_A06\uart_queue.o
 .bss           0x00000000        0x0 depend_Debug_CSR102x_A06\uart_queue.o
 .bss.g_head    0x00000000        0x0 depend_Debug_CSR102x_A06\uart_queue.o
 .bss.g_peek    0x00000000        0x0 depend_Debug_CSR102x_A06\uart_queue.o
 .bss.g_tail    0x00000000        0x0 depend_Debug_CSR102x_A06\uart_queue.o
 .text.copyIntoBuffer
                0x00000000        0x0 depend_Debug_CSR102x_A06\uart_queue.o
 .text.peekBuffer
                0x00000000        0x0 depend_Debug_CSR102x_A06\uart_queue.o
 .text.UQ_SafeQueueBytes
                0x00000000        0x0 depend_Debug_CSR102x_A06\uart_queue.o
 .text.UQ_ForceQueueBytes
                0x00000000        0x0 depend_Debug_CSR102x_A06\uart_queue.o
 .text.UQ_BufferCapacity
                0x00000000        0x0 depend_Debug_CSR102x_A06\uart_queue.o
 .text.UQ_DataAvailable
                0x00000000        0x0 depend_Debug_CSR102x_A06\uart_queue.o
 .text.UQ_SpaceAvailable
                0x00000000        0x0 depend_Debug_CSR102x_A06\uart_queue.o
 .text.UQ_Reset
                0x00000000        0x0 depend_Debug_CSR102x_A06\uart_queue.o
 .text.UQ_Peek  0x00000000        0x0 depend_Debug_CSR102x_A06\uart_queue.o
 .text.UQ_CommitLastPeek
                0x00000000        0x0 depend_Debug_CSR102x_A06\uart_queue.o
 .bss.g_queue   0x00000000        0x0 depend_Debug_CSR102x_A06\uart_queue.o
 .text          0x00000000        0x0 depend_Debug_CSR102x_A06\UARTMCU.o
 .data          0x00000000        0x0 depend_Debug_CSR102x_A06\UARTMCU.o
 .bss           0x00000000        0x0 depend_Debug_CSR102x_A06\UARTMCU.o
 .text.sendPendingData1
                0x00000000        0x0 depend_Debug_CSR102x_A06\UARTMCU.o
 .text          0x00000000        0x0 depend_Debug_CSR102x_A06\pio_ctrlr_code.o
 .data          0x00000000        0x0 depend_Debug_CSR102x_A06\pio_ctrlr_code.o
 .bss           0x00000000        0x0 depend_Debug_CSR102x_A06\pio_ctrlr_code.o
 .rodata        0x00000000        0x0 depend_Debug_CSR102x_A06\pio_ctrlr_code.o
 .text          0x00000000        0x0 ..\mesh_common\mesh\libraries\CSR102x_A06\libcsrmesh.a(csr_mesh.o)
 .data          0x00000000        0x0 ..\mesh_common\mesh\libraries\CSR102x_A06\libcsrmesh.a(csr_mesh.o)
 .bss           0x00000000        0x0 ..\mesh_common\mesh\libraries\CSR102x_A06\libcsrmesh.a(csr_mesh.o)
 .text.CSRmeshGetDeviceID
                0x00000000        0x0 ..\mesh_common\mesh\libraries\CSR102x_A06\libcsrmesh.a(csr_mesh.o)
 .text.___libcsrmesh_87
                0x00000000        0x0 ..\mesh_common\mesh\libraries\CSR102x_A06\libcsrmesh.a(csr_mesh.o)
 .text.___libcsrmesh_93
                0x00000000        0x0 ..\mesh_common\mesh\libraries\CSR102x_A06\libcsrmesh.a(csr_mesh.o)
 .text.CSRmeshSetMeshDuplicateMessageCacheSize
                0x00000000        0x0 ..\mesh_common\mesh\libraries\CSR102x_A06\libcsrmesh.a(csr_mesh.o)
 .text.___libcsrmesh_92
                0x00000000        0x0 ..\mesh_common\mesh\libraries\CSR102x_A06\libcsrmesh.a(csr_mesh.o)
 .text.___libcsrmesh_91
                0x00000000        0x0 ..\mesh_common\mesh\libraries\CSR102x_A06\libcsrmesh.a(csr_mesh.o)
 .text.___libcsrmesh_89
                0x00000000        0x0 ..\mesh_common\mesh\libraries\CSR102x_A06\libcsrmesh.a(csr_mesh.o)
 .text.___libcsrmesh_90
                0x00000000        0x0 ..\mesh_common\mesh\libraries\CSR102x_A06\libcsrmesh.a(csr_mesh.o)
 .text.___libcsrmesh_86
                0x00000000        0x0 ..\mesh_common\mesh\libraries\CSR102x_A06\libcsrmesh.a(csr_mesh.o)
 .text.CSRmeshSendKeyIVStatusRequest
                0x00000000        0x0 ..\mesh_common\mesh\libraries\CSR102x_A06\libcsrmesh.a(csr_mesh.o)
 .text.___libcsrmesh_83
                0x00000000        0x0 ..\mesh_common\mesh\libraries\CSR102x_A06\libcsrmesh.a(csr_mesh.o)
 .text.CSRmeshSetSrcSequenceCache
                0x00000000        0x0 ..\mesh_common\mesh\libraries\CSR102x_A06\libcsrmesh.a(csr_mesh.o)
 .text.CSRmeshGetTransmitState
                0x00000000        0x0 ..\mesh_common\mesh\libraries\CSR102x_A06\libcsrmesh.a(csr_mesh.o)
 .text.CSRmeshGetDeviceUUID
                0x00000000        0x0 ..\mesh_common\mesh\libraries\CSR102x_A06\libcsrmesh.a(csr_mesh.o)
 .text.CSRmeshReset
                0x00000000        0x0 ..\mesh_common\mesh\libraries\CSR102x_A06\libcsrmesh.a(csr_mesh.o)
 .text          0x00000000        0x0 ..\mesh_common\mesh\libraries\CSR102x_A06\libcsrmesh.a(csr_mesh_masp_mcp_common.o)
 .data          0x00000000        0x0 ..\mesh_common\mesh\libraries\CSR102x_A06\libcsrmesh.a(csr_mesh_masp_mcp_common.o)
 .bss           0x00000000        0x0 ..\mesh_common\mesh\libraries\CSR102x_A06\libcsrmesh.a(csr_mesh_masp_mcp_common.o)
 .text          0x00000000        0x0 ..\mesh_common\mesh\libraries\CSR102x_A06\libcsrmesh.a(csr_mesh_mtl.o)
 .data          0x00000000        0x0 ..\mesh_common\mesh\libraries\CSR102x_A06\libcsrmesh.a(csr_mesh_mtl.o)
 .bss           0x00000000        0x0 ..\mesh_common\mesh\libraries\CSR102x_A06\libcsrmesh.a(csr_mesh_mtl.o)
 .text.___libcsrmesh_269
                0x00000000        0x0 ..\mesh_common\mesh\libraries\CSR102x_A06\libcsrmesh.a(csr_mesh_mtl.o)
 .text.___libcsrmesh_280
                0x00000000        0x0 ..\mesh_common\mesh\libraries\CSR102x_A06\libcsrmesh.a(csr_mesh_mtl.o)
 .text.___libcsrmesh_277
                0x00000000        0x0 ..\mesh_common\mesh\libraries\CSR102x_A06\libcsrmesh.a(csr_mesh_mtl.o)
 .text.___libcsrmesh_275
                0x00000000        0x0 ..\mesh_common\mesh\libraries\CSR102x_A06\libcsrmesh.a(csr_mesh_mtl.o)
 .text          0x00000000        0x0 ..\mesh_common\mesh\libraries\CSR102x_A06\libcsrmesh.a(csr_mesh_ec_alloc.o)
 .data          0x00000000        0x0 ..\mesh_common\mesh\libraries\CSR102x_A06\libcsrmesh.a(csr_mesh_ec_alloc.o)
 .bss           0x00000000        0x0 ..\mesh_common\mesh\libraries\CSR102x_A06\libcsrmesh.a(csr_mesh_ec_alloc.o)
 .text          0x00000000        0x0 ..\mesh_common\mesh\libraries\CSR102x_A06\libcsrmesh.a(csr_mesh_masp.o)
 .data          0x00000000        0x0 ..\mesh_common\mesh\libraries\CSR102x_A06\libcsrmesh.a(csr_mesh_masp.o)
 .bss           0x00000000        0x0 ..\mesh_common\mesh\libraries\CSR102x_A06\libcsrmesh.a(csr_mesh_masp.o)
 .text.___libcsrmesh_454
                0x00000000        0x0 ..\mesh_common\mesh\libraries\CSR102x_A06\libcsrmesh.a(csr_mesh_masp.o)
 .text          0x00000000        0x0 ..\mesh_common\mesh\libraries\CSR102x_A06\libcsrmesh.a(csr_mesh_mcp.o)
 .data          0x00000000        0x0 ..\mesh_common\mesh\libraries\CSR102x_A06\libcsrmesh.a(csr_mesh_mcp.o)
 .bss           0x00000000        0x0 ..\mesh_common\mesh\libraries\CSR102x_A06\libcsrmesh.a(csr_mesh_mcp.o)
 .text.___libcsrmesh_243
                0x00000000        0x0 ..\mesh_common\mesh\libraries\CSR102x_A06\libcsrmesh.a(csr_mesh_mcp.o)
 .text.___libcsrmesh_244
                0x00000000        0x0 ..\mesh_common\mesh\libraries\CSR102x_A06\libcsrmesh.a(csr_mesh_mcp.o)
 .text.___libcsrmesh_240
                0x00000000        0x0 ..\mesh_common\mesh\libraries\CSR102x_A06\libcsrmesh.a(csr_mesh_mcp.o)
 .text.___libcsrmesh_242
                0x00000000        0x0 ..\mesh_common\mesh\libraries\CSR102x_A06\libcsrmesh.a(csr_mesh_mcp.o)
 .text.___libcsrmesh_460
                0x00000000        0x0 ..\mesh_common\mesh\libraries\CSR102x_A06\libcsrmesh.a(csr_mesh_mcp.o)
 .text          0x00000000        0x0 ..\mesh_common\mesh\libraries\CSR102x_A06\libcsrmesh.a(csr_mesh_sha256_get_results.o)
 .data          0x00000000        0x0 ..\mesh_common\mesh\libraries\CSR102x_A06\libcsrmesh.a(csr_mesh_sha256_get_results.o)
 .bss           0x00000000        0x0 ..\mesh_common\mesh\libraries\CSR102x_A06\libcsrmesh.a(csr_mesh_sha256_get_results.o)
 .text          0x00000000        0x0 ..\mesh_common\mesh\libraries\CSR102x_A06\libcsrmesh.a(csr_mesh_sha256_hmac.o)
 .data          0x00000000        0x0 ..\mesh_common\mesh\libraries\CSR102x_A06\libcsrmesh.a(csr_mesh_sha256_hmac.o)
 .bss           0x00000000        0x0 ..\mesh_common\mesh\libraries\CSR102x_A06\libcsrmesh.a(csr_mesh_sha256_hmac.o)
 .rodata.str2.2
                0x00000000        0x0 ..\mesh_common\mesh\libraries\CSR102x_A06\libcsrmesh.a(csr_mesh_sha256_hmac.o)
 .text.___libcsrmesh_306
                0x00000000        0x0 ..\mesh_common\mesh\libraries\CSR102x_A06\libcsrmesh.a(csr_mesh_sha256_hmac.o)
 .text.CSRmeshCalculateSHA256Hash
                0x00000000        0x0 ..\mesh_common\mesh\libraries\CSR102x_A06\libcsrmesh.a(csr_mesh_sha256_hmac.o)
 .text          0x00000000        0x0 ..\mesh_common\mesh\libraries\CSR102x_A06\libcsrmesh.a(csr_mesh_sha256_initialise.o)
 .data          0x00000000        0x0 ..\mesh_common\mesh\libraries\CSR102x_A06\libcsrmesh.a(csr_mesh_sha256_initialise.o)
 .bss           0x00000000        0x0 ..\mesh_common\mesh\libraries\CSR102x_A06\libcsrmesh.a(csr_mesh_sha256_initialise.o)
 .text          0x00000000        0x0 ..\mesh_common\mesh\libraries\CSR102x_A06\libcsrmesh.a(csr_mesh_sha256_process_data.o)
 .data          0x00000000        0x0 ..\mesh_common\mesh\libraries\CSR102x_A06\libcsrmesh.a(csr_mesh_sha256_process_data.o)
 .bss           0x00000000        0x0 ..\mesh_common\mesh\libraries\CSR102x_A06\libcsrmesh.a(csr_mesh_sha256_process_data.o)
 .text.___libcsrmesh_319
                0x00000000        0x0 ..\mesh_common\mesh\libraries\CSR102x_A06\libcsrmesh.a(csr_mesh_sha256_process_data.o)
 .text          0x00000000        0x0 ..\mesh_common\mesh\libraries\CSR102x_A06\libcsrmesh.a(csr_mesh_bearer.o)
 .data          0x00000000        0x0 ..\mesh_common\mesh\libraries\CSR102x_A06\libcsrmesh.a(csr_mesh_bearer.o)
 .bss           0x00000000        0x0 ..\mesh_common\mesh\libraries\CSR102x_A06\libcsrmesh.a(csr_mesh_bearer.o)
 .text          0x00000000        0x0 ..\mesh_common\mesh\libraries\CSR102x_A06\libcsrmesh.a(csr_mesh_bearer_porting_util.o)
 .data          0x00000000        0x0 ..\mesh_common\mesh\libraries\CSR102x_A06\libcsrmesh.a(csr_mesh_bearer_porting_util.o)
 .bss           0x00000000        0x0 ..\mesh_common\mesh\libraries\CSR102x_A06\libcsrmesh.a(csr_mesh_bearer_porting_util.o)
 .text          0x00000000        0x0 ..\mesh_common\mesh\libraries\CSR102x_A06\libcsrmesh.a(csr1010_scheduler.o)
 .data          0x00000000        0x0 ..\mesh_common\mesh\libraries\CSR102x_A06\libcsrmesh.a(csr1010_scheduler.o)
 .bss           0x00000000        0x0 ..\mesh_common\mesh\libraries\CSR102x_A06\libcsrmesh.a(csr1010_scheduler.o)
 .text.CSRSchedRegisterPriorityMsgCb
                0x00000000        0x0 ..\mesh_common\mesh\libraries\CSR102x_A06\libcsrmesh.a(csr1010_scheduler.o)
 .text          0x00000000        0x0 ..\mesh_common\mesh\libraries\CSR102x_A06\libcsrmesh.a(csr_mesh_hal_ifce.o)
 .data          0x00000000        0x0 ..\mesh_common\mesh\libraries\CSR102x_A06\libcsrmesh.a(csr_mesh_hal_ifce.o)
 .bss           0x00000000        0x0 ..\mesh_common\mesh\libraries\CSR102x_A06\libcsrmesh.a(csr_mesh_hal_ifce.o)
 .text          0x00000000        0x0 ..\mesh_common\mesh\libraries\CSR102x_A06\libcsrmesh.a(csr_mesh_security_ifce_101x.o)
 .data          0x00000000        0x0 ..\mesh_common\mesh\libraries\CSR102x_A06\libcsrmesh.a(csr_mesh_security_ifce_101x.o)
 .bss           0x00000000        0x0 ..\mesh_common\mesh\libraries\CSR102x_A06\libcsrmesh.a(csr_mesh_security_ifce_101x.o)
 .text          0x00000000        0x0 ..\mesh_common\mesh\libraries\CSR102x_A06\libcsrmesh.a(csr_mesh_config_model.o)
 .data          0x00000000        0x0 ..\mesh_common\mesh\libraries\CSR102x_A06\libcsrmesh.a(csr_mesh_config_model.o)
 .bss           0x00000000        0x0 ..\mesh_common\mesh\libraries\CSR102x_A06\libcsrmesh.a(csr_mesh_config_model.o)
 .text          0x00000000        0x0 ..\mesh_common\mesh\libraries\CSR102x_A06\libcsrmesh.a(csr_mesh_bearer_model.o)
 .data          0x00000000        0x0 ..\mesh_common\mesh\libraries\CSR102x_A06\libcsrmesh.a(csr_mesh_bearer_model.o)
 .bss           0x00000000        0x0 ..\mesh_common\mesh\libraries\CSR102x_A06\libcsrmesh.a(csr_mesh_bearer_model.o)
 .text          0x00000000        0x0 ..\mesh_common\mesh\libraries\CSR102x_A06\libcsrmesh.a(csr_mesh_ec_math.o)
 .data          0x00000000        0x0 ..\mesh_common\mesh\libraries\CSR102x_A06\libcsrmesh.a(csr_mesh_ec_math.o)
 .bss           0x00000000        0x0 ..\mesh_common\mesh\libraries\CSR102x_A06\libcsrmesh.a(csr_mesh_ec_math.o)
 .text          0x00000000        0x0 ..\mesh_common\mesh\libraries\CSR102x_A06\libcsrmesh.a(csr_mesh_group_model.o)
 .data          0x00000000        0x0 ..\mesh_common\mesh\libraries\CSR102x_A06\libcsrmesh.a(csr_mesh_group_model.o)
 .bss           0x00000000        0x0 ..\mesh_common\mesh\libraries\CSR102x_A06\libcsrmesh.a(csr_mesh_group_model.o)
 .text          0x00000000        0x0 ..\mesh_common\mesh\libraries\CSR102x_A06\libcsrmesh.a(csr_mesh_large_num.o)
 .data          0x00000000        0x0 ..\mesh_common\mesh\libraries\CSR102x_A06\libcsrmesh.a(csr_mesh_large_num.o)
 .bss           0x00000000        0x0 ..\mesh_common\mesh\libraries\CSR102x_A06\libcsrmesh.a(csr_mesh_large_num.o)
 .text          0x00000000        0x0 ..\mesh_common\mesh\libraries\CSR102x_A06\libcsrmesh.a(csr_mesh_sha_add_to_cache.o)
 .data          0x00000000        0x0 ..\mesh_common\mesh\libraries\CSR102x_A06\libcsrmesh.a(csr_mesh_sha_add_to_cache.o)
 .bss           0x00000000        0x0 ..\mesh_common\mesh\libraries\CSR102x_A06\libcsrmesh.a(csr_mesh_sha_add_to_cache.o)
 .text          0x00000000        0x0 ..\mesh_common\mesh\libraries\CSR102x_A06\libcsrmesh.a(csr_mesh_sha256_calc_ith_hash_val.o)
 .data          0x00000000        0x0 ..\mesh_common\mesh\libraries\CSR102x_A06\libcsrmesh.a(csr_mesh_sha256_calc_ith_hash_val.o)
 .bss           0x00000000        0x0 ..\mesh_common\mesh\libraries\CSR102x_A06\libcsrmesh.a(csr_mesh_sha256_calc_ith_hash_val.o)
 .text          0x00000000        0x0 ..\mesh_common\mesh\libraries\CSR102x_A06\libextension_client.a(extension_client_exception.o)
 .data          0x00000000        0x0 ..\mesh_common\mesh\libraries\CSR102x_A06\libextension_client.a(extension_client_exception.o)
 .bss           0x00000000        0x0 ..\mesh_common\mesh\libraries\CSR102x_A06\libextension_client.a(extension_client_exception.o)
 .text          0x00000000        0x0 ..\mesh_common\mesh\libraries\CSR102x_A06\libextension_server.a(extension_model.o)
 .data          0x00000000        0x0 ..\mesh_common\mesh\libraries\CSR102x_A06\libextension_server.a(extension_model.o)
 .bss           0x00000000        0x0 ..\mesh_common\mesh\libraries\CSR102x_A06\libextension_server.a(extension_model.o)
 .text.ExtensionConflict
                0x00000000        0x0 ..\mesh_common\mesh\libraries\CSR102x_A06\libextension_server.a(extension_model.o)
 .text          0x00000000        0x0 ..\mesh_common\mesh\libraries\CSR102x_A06\libextension_server.a(extension_server_exception.o)
 .data          0x00000000        0x0 ..\mesh_common\mesh\libraries\CSR102x_A06\libextension_server.a(extension_server_exception.o)
 .bss           0x00000000        0x0 ..\mesh_common\mesh\libraries\CSR102x_A06\libextension_server.a(extension_server_exception.o)
 .text.ExtensionVerifyOpcodeConflictWithMesh
                0x00000000        0x0 ..\mesh_common\mesh\libraries\CSR102x_A06\libextension_server.a(extension_server_exception.o)
 .text          0x00000000        0x0 C:\CSR102x_SDK-3.1.1\tools\lib\CSR102x_A06\libgatt_lib_ram.a(gatt_init.o)
 .data          0x00000000        0x0 C:\CSR102x_SDK-3.1.1\tools\lib\CSR102x_A06\libgatt_lib_ram.a(gatt_init.o)
 .bss           0x00000000        0x0 C:\CSR102x_SDK-3.1.1\tools\lib\CSR102x_A06\libgatt_lib_ram.a(gatt_init.o)
 .text.___libgatt_lib_db_859
                0x00000000        0x0 C:\CSR102x_SDK-3.1.1\tools\lib\CSR102x_A06\libgatt_lib_ram.a(gatt_init.o)
 .text          0x00000000        0x0 C:\CSR102x_SDK-3.1.1\tools\lib\CSR102x_A06\libgatt_lib_ram.a(gatt_exchange_mtu_rsp_api.o)
 .data          0x00000000        0x0 C:\CSR102x_SDK-3.1.1\tools\lib\CSR102x_A06\libgatt_lib_ram.a(gatt_exchange_mtu_rsp_api.o)
 .bss           0x00000000        0x0 C:\CSR102x_SDK-3.1.1\tools\lib\CSR102x_A06\libgatt_lib_ram.a(gatt_exchange_mtu_rsp_api.o)
 .data          0x00000000        0x0 C:\CSR102x_SDK-3.1.1\tools\lib\CSR102x_A06\libgatt_lib_ram.a(sm_ram.o)
 .bss           0x00000000        0x0 C:\CSR102x_SDK-3.1.1\tools\lib\CSR102x_A06\libgatt_lib_ram.a(sm_ram.o)
 .data          0x00000000        0x0 C:\CSR102x_SDK-3.1.1\tools\lib\CSR102x_A06\libgatt_lib_ram.a(sm_key_req_api.o)
 .bss           0x00000000        0x0 C:\CSR102x_SDK-3.1.1\tools\lib\CSR102x_A06\libgatt_lib_ram.a(sm_key_req_api.o)
 .data          0x00000000        0x0 C:\CSR102x_SDK-3.1.1\tools\lib\CSR102x_A06\libgatt_lib_ram.a(sm_div_approval_api.o)
 .bss           0x00000000        0x0 C:\CSR102x_SDK-3.1.1\tools\lib\CSR102x_A06\libgatt_lib_ram.a(sm_div_approval_api.o)
 .data          0x00000000        0x0 C:\CSR102x_SDK-3.1.1\tools\lib\CSR102x_A06\libgatt_lib_ram.a(sm_pairing_auth_api.o)
 .bss           0x00000000        0x0 C:\CSR102x_SDK-3.1.1\tools\lib\CSR102x_A06\libgatt_lib_ram.a(sm_pairing_auth_api.o)
 .data          0x00000000        0x0 C:\CSR102x_SDK-3.1.1\tools\lib\CSR102x_A06\libgatt_lib_ram.a(sm_ltk_api.o)
 .bss           0x00000000        0x0 C:\CSR102x_SDK-3.1.1\tools\lib\CSR102x_A06\libgatt_lib_ram.a(sm_ltk_api.o)
 .text          0x00000000        0x0 C:\CSR102x_SDK-3.1.1\tools\lib\CSR102x_A06\libgatt_lib_ram.a(bletest.o)
 .data          0x00000000        0x0 C:\CSR102x_SDK-3.1.1\tools\lib\CSR102x_A06\libgatt_lib_ram.a(bletest.o)
 .bss           0x00000000        0x0 C:\CSR102x_SDK-3.1.1\tools\lib\CSR102x_A06\libgatt_lib_ram.a(bletest.o)
 .text.bletest_response
                0x00000000        0x0 C:\CSR102x_SDK-3.1.1\tools\lib\CSR102x_A06\libgatt_lib_ram.a(bletest.o)
 .text.DirectTestProcessEvent
                0x00000000        0x0 C:\CSR102x_SDK-3.1.1\tools\lib\CSR102x_A06\libgatt_lib_ram.a(bletest.o)
 .text.DirectTestInit
                0x00000000        0x0 C:\CSR102x_SDK-3.1.1\tools\lib\CSR102x_A06\libgatt_lib_ram.a(bletest.o)
 .bss.uart_rx_buffer
                0x00000000        0x0 C:\CSR102x_SDK-3.1.1\tools\lib\CSR102x_A06\libgatt_lib_ram.a(bletest.o)
 .bss.uart_tx_buffer
                0x00000000        0x0 C:\CSR102x_SDK-3.1.1\tools\lib\CSR102x_A06\libgatt_lib_ram.a(bletest.o)
 .bss.bletest_input
                0x00000000        0x0 C:\CSR102x_SDK-3.1.1\tools\lib\CSR102x_A06\libgatt_lib_ram.a(bletest.o)
 .bss.cw_running
                0x00000000        0x0 C:\CSR102x_SDK-3.1.1\tools\lib\CSR102x_A06\libgatt_lib_ram.a(bletest.o)
 .text          0x00000000        0x0 C:\CSR102x_SDK-3.1.1\tools\lib\CSR102x_A06\libgatt_lib_ram.a(patch_uart.o)
 .data          0x00000000        0x0 C:\CSR102x_SDK-3.1.1\tools\lib\CSR102x_A06\libgatt_lib_ram.a(patch_uart.o)
 .bss           0x00000000        0x0 C:\CSR102x_SDK-3.1.1\tools\lib\CSR102x_A06\libgatt_lib_ram.a(patch_uart.o)
 .text.UartConfigRtsLevel
                0x00000000        0x0 C:\CSR102x_SDK-3.1.1\tools\lib\CSR102x_A06\libgatt_lib_ram.a(patch_uart.o)
 .text.UartInitAlloc
                0x00000000        0x0 C:\CSR102x_SDK-3.1.1\tools\lib\CSR102x_A06\libgatt_lib_ram.a(patch_uart.o)
 .text          0x00000000        0x0 C:\CSR102x_SDK-3.1.1\tools\lib\CSR102x_A06\libgatt_lib_ram.a(patch_flashheart_d06.o)
 .data          0x00000000        0x0 C:\CSR102x_SDK-3.1.1\tools\lib\CSR102x_A06\libgatt_lib_ram.a(patch_flashheart_d06.o)
 .bss           0x00000000        0x0 C:\CSR102x_SDK-3.1.1\tools\lib\CSR102x_A06\libgatt_lib_ram.a(patch_flashheart_d06.o)
 .text          0x00000000        0x0 C:\CSR102x_SDK-3.1.1\tools\lib\CSR102x_A06\libgatt_lib_ram.a(id_ram.o)
 .data          0x00000000        0x0 C:\CSR102x_SDK-3.1.1\tools\lib\CSR102x_A06\libgatt_lib_ram.a(id_ram.o)
 .bss           0x00000000        0x0 C:\CSR102x_SDK-3.1.1\tools\lib\CSR102x_A06\libgatt_lib_ram.a(id_ram.o)
 .text          0x00000000        0x0 C:\CSR102x_SDK-3.1.1\tools\lib\CSR102x_A06\libgatt_lib_ram.a(sw_patch_ram.o)
 .data          0x00000000        0x0 C:\CSR102x_SDK-3.1.1\tools\lib\CSR102x_A06\libgatt_lib_ram.a(sw_patch_ram.o)
 .bss           0x00000000        0x0 C:\CSR102x_SDK-3.1.1\tools\lib\CSR102x_A06\libgatt_lib_ram.a(sw_patch_ram.o)
 .text.___libgatt_lib_db_2133
                0x00000000        0x0 C:\CSR102x_SDK-3.1.1\tools\lib\CSR102x_A06\libgatt_lib_ram.a(sw_patch_ram.o)
 .text.___libgatt_lib_db_2132
                0x00000000        0x0 C:\CSR102x_SDK-3.1.1\tools\lib\CSR102x_A06\libgatt_lib_ram.a(sw_patch_ram.o)
 .text          0x00000000        0x0 C:\CSR102x_SDK-3.1.1\tools\lib\CSR102x_A06\libgatt_lib_ram.a(configstore_api.o)
 .data          0x00000000        0x0 C:\CSR102x_SDK-3.1.1\tools\lib\CSR102x_A06\libgatt_lib_ram.a(configstore_api.o)
 .bss           0x00000000        0x0 C:\CSR102x_SDK-3.1.1\tools\lib\CSR102x_A06\libgatt_lib_ram.a(configstore_api.o)
 .text.ConfigStoreDeleteKey
                0x00000000        0x0 C:\CSR102x_SDK-3.1.1\tools\lib\CSR102x_A06\libgatt_lib_ram.a(configstore_api.o)
 .text.ConfigStoreWriteKey
                0x00000000        0x0 C:\CSR102x_SDK-3.1.1\tools\lib\CSR102x_A06\libgatt_lib_ram.a(configstore_api.o)
 .text.ConfigStoreReadKeyBlocking
                0x00000000        0x0 C:\CSR102x_SDK-3.1.1\tools\lib\CSR102x_A06\libgatt_lib_ram.a(configstore_api.o)
 COMMON         0x00000000        0x0 C:\CSR102x_SDK-3.1.1\tools\lib\CSR102x_A06\libgatt_lib_ram.a(configstore_api.o)
 .text          0x00000000        0x0 C:\CSR102x_SDK-3.1.1\tools\lib\CSR102x_A06\libgatt_lib_ram.a(userstore_api.o)
 .data          0x00000000        0x0 C:\CSR102x_SDK-3.1.1\tools\lib\CSR102x_A06\libgatt_lib_ram.a(userstore_api.o)
 .bss           0x00000000        0x0 C:\CSR102x_SDK-3.1.1\tools\lib\CSR102x_A06\libgatt_lib_ram.a(userstore_api.o)
 .text.Userstore_Erase
                0x00000000        0x0 C:\CSR102x_SDK-3.1.1\tools\lib\CSR102x_A06\libgatt_lib_ram.a(userstore_api.o)
 .data          0x00000000        0x0 C:\CSR102x_SDK-3.1.1\tools\lib\CSR102x_A06\libgatt_lib_ram.a(app_proxy_crt.o)
 .bss           0x00000000        0x0 C:\CSR102x_SDK-3.1.1\tools\lib\CSR102x_A06\libgatt_lib_ram.a(app_proxy_crt.o)
 .text          0x00000000        0x0 C:\CSR102x_SDK-3.1.1\tools\lib\CSR102x_A06\libgatt_lib_ram.a(patch_store_update_msg_handler.o)
 .data          0x00000000        0x0 C:\CSR102x_SDK-3.1.1\tools\lib\CSR102x_A06\libgatt_lib_ram.a(patch_store_update_msg_handler.o)
 .bss           0x00000000        0x0 C:\CSR102x_SDK-3.1.1\tools\lib\CSR102x_A06\libgatt_lib_ram.a(patch_store_update_msg_handler.o)
 .text          0x00000000        0x0 C:\CSR102x_SDK-3.1.1\tools\lib\CSR102x_A06\libgatt_lib_ram.a(patch_sysop_pmu_fht.o)
 .data          0x00000000        0x0 C:\CSR102x_SDK-3.1.1\tools\lib\CSR102x_A06\libgatt_lib_ram.a(patch_sysop_pmu_fht.o)
 .bss           0x00000000        0x0 C:\CSR102x_SDK-3.1.1\tools\lib\CSR102x_A06\libgatt_lib_ram.a(patch_sysop_pmu_fht.o)
 .text          0x00000000        0x0 C:\CSR102x_SDK-3.1.1\tools\lib\CSR102x_A06\libgatt_lib_ram.a(patch_bleinit.o)
 .data          0x00000000        0x0 C:\CSR102x_SDK-3.1.1\tools\lib\CSR102x_A06\libgatt_lib_ram.a(patch_bleinit.o)
 .bss           0x00000000        0x0 C:\CSR102x_SDK-3.1.1\tools\lib\CSR102x_A06\libgatt_lib_ram.a(patch_bleinit.o)
 .text          0x00000000        0x0 C:\CSR102x_SDK-3.1.1\tools\lib\CSR102x_A06\libgatt_lib_ram.a(patch_blerx.o)
 .data          0x00000000        0x0 C:\CSR102x_SDK-3.1.1\tools\lib\CSR102x_A06\libgatt_lib_ram.a(patch_blerx.o)
 .bss           0x00000000        0x0 C:\CSR102x_SDK-3.1.1\tools\lib\CSR102x_A06\libgatt_lib_ram.a(patch_blerx.o)
 .text          0x00000000        0x0 C:\CSR102x_SDK-3.1.1\tools\lib\CSR102x_A06\libgatt_lib_ram.a(patch_blelo.o)
 .data          0x00000000        0x0 C:\CSR102x_SDK-3.1.1\tools\lib\CSR102x_A06\libgatt_lib_ram.a(patch_blelo.o)
 .bss           0x00000000        0x0 C:\CSR102x_SDK-3.1.1\tools\lib\CSR102x_A06\libgatt_lib_ram.a(patch_blelo.o)
 .text          0x00000000        0x0 C:\CSR102x_SDK-3.1.1\tools\lib\CSR102x_A06\libgatt_lib_ram.a(patch_bletx.o)
 .data          0x00000000        0x0 C:\CSR102x_SDK-3.1.1\tools\lib\CSR102x_A06\libgatt_lib_ram.a(patch_bletx.o)
 .bss           0x00000000        0x0 C:\CSR102x_SDK-3.1.1\tools\lib\CSR102x_A06\libgatt_lib_ram.a(patch_bletx.o)
 .text          0x00000000        0x0 C:\CSR102x_SDK-3.1.1\tools\lib\CSR102x_A06\libgatt_lib_ram.a(patch_hal_bleradio.o)
 .data          0x00000000        0x0 C:\CSR102x_SDK-3.1.1\tools\lib\CSR102x_A06\libgatt_lib_ram.a(patch_hal_bleradio.o)
 .bss           0x00000000        0x0 C:\CSR102x_SDK-3.1.1\tools\lib\CSR102x_A06\libgatt_lib_ram.a(patch_hal_bleradio.o)
 .text          0x00000000        0x0 C:\CSR102x_SDK-3.1.1\tools\lib\CSR102x_A06\libgatt_lib_ram.a(strncpy.o)
 .data          0x00000000        0x0 C:\CSR102x_SDK-3.1.1\tools\lib\CSR102x_A06\libgatt_lib_ram.a(strncpy.o)
 .bss           0x00000000        0x0 C:\CSR102x_SDK-3.1.1\tools\lib\CSR102x_A06\libgatt_lib_ram.a(strncpy.o)
 .text          0x00000000        0x0 C:\CSR102x_SDK-3.1.1\tools\lib\CSR102x_A06\libgatt_lib_ram.a(patch_bg_ints.o)
 .data          0x00000000        0x0 C:\CSR102x_SDK-3.1.1\tools\lib\CSR102x_A06\libgatt_lib_ram.a(patch_bg_ints.o)
 .bss           0x00000000        0x0 C:\CSR102x_SDK-3.1.1\tools\lib\CSR102x_A06\libgatt_lib_ram.a(patch_bg_ints.o)
 .text          0x00000000        0x0 C:\CSR102x_SDK-3.1.1\tools\lib\CSR102x_A06\libgatt_lib_ram.a(patch_ls.o)
 .data          0x00000000        0x0 C:\CSR102x_SDK-3.1.1\tools\lib\CSR102x_A06\libgatt_lib_ram.a(patch_ls.o)
 .bss           0x00000000        0x0 C:\CSR102x_SDK-3.1.1\tools\lib\CSR102x_A06\libgatt_lib_ram.a(patch_ls.o)
 .text          0x00000000        0x0 C:\CSR102x_SDK-3.1.1\tools\lib\CSR102x_A06\libgatt_lib_ram.a(patch_att.o)
 .data          0x00000000        0x0 C:\CSR102x_SDK-3.1.1\tools\lib\CSR102x_A06\libgatt_lib_ram.a(patch_att.o)
 .bss           0x00000000        0x0 C:\CSR102x_SDK-3.1.1\tools\lib\CSR102x_A06\libgatt_lib_ram.a(patch_att.o)
 .text          0x00000000        0x0 C:\CSR102x_SDK-3.1.1\tools\lib\CSR102x_A06\libgatt_lib_ram.a(patch_george_interrupt.o)
 .data          0x00000000        0x0 C:\CSR102x_SDK-3.1.1\tools\lib\CSR102x_A06\libgatt_lib_ram.a(patch_george_interrupt.o)
 .bss           0x00000000        0x0 C:\CSR102x_SDK-3.1.1\tools\lib\CSR102x_A06\libgatt_lib_ram.a(patch_george_interrupt.o)
 .text          0x00000000        0x0 C:\CSR102x_SDK-3.1.1\tools\lib\CSR102x_A06\libgatt_lib_ram.a(patch_george.o)
 .data          0x00000000        0x0 C:\CSR102x_SDK-3.1.1\tools\lib\CSR102x_A06\libgatt_lib_ram.a(patch_george.o)
 .bss           0x00000000        0x0 C:\CSR102x_SDK-3.1.1\tools\lib\CSR102x_A06\libgatt_lib_ram.a(patch_george.o)
 .text          0x00000000        0x0 C:\CSR102x_SDK-3.1.1\tools\lib\CSR102x_A06\libgatt_lib_ram.a(patch_george_reset.o)
 .data          0x00000000        0x0 C:\CSR102x_SDK-3.1.1\tools\lib\CSR102x_A06\libgatt_lib_ram.a(patch_george_reset.o)
 .bss           0x00000000        0x0 C:\CSR102x_SDK-3.1.1\tools\lib\CSR102x_A06\libgatt_lib_ram.a(patch_george_reset.o)
 .text          0x00000000        0x0 C:\CSR102x_SDK-3.1.1\tools\lib\CSR102x_A06\libgatt_lib_ram.a(patch_george_scheduler.o)
 .data          0x00000000        0x0 C:\CSR102x_SDK-3.1.1\tools\lib\CSR102x_A06\libgatt_lib_ram.a(patch_george_scheduler.o)
 .bss           0x00000000        0x0 C:\CSR102x_SDK-3.1.1\tools\lib\CSR102x_A06\libgatt_lib_ram.a(patch_george_scheduler.o)
 .text          0x00000000        0x0 C:\CSR102x_SDK-3.1.1\tools\lib\CSR102x_A06\libgatt_lib_ram.a(patch_george_acl_tx_buffers.o)
 .data          0x00000000        0x0 C:\CSR102x_SDK-3.1.1\tools\lib\CSR102x_A06\libgatt_lib_ram.a(patch_george_acl_tx_buffers.o)
 .bss           0x00000000        0x0 C:\CSR102x_SDK-3.1.1\tools\lib\CSR102x_A06\libgatt_lib_ram.a(patch_george_acl_tx_buffers.o)
 .text          0x00000000        0x0 C:\CSR102x_SDK-3.1.1\tools\lib\CSR102x_A06\libgatt_lib_ram.a(patch_george_test.o)
 .data          0x00000000        0x0 C:\CSR102x_SDK-3.1.1\tools\lib\CSR102x_A06\libgatt_lib_ram.a(patch_george_test.o)
 .bss           0x00000000        0x0 C:\CSR102x_SDK-3.1.1\tools\lib\CSR102x_A06\libgatt_lib_ram.a(patch_george_test.o)
 .text          0x00000000        0x0 C:\CSR102x_SDK-3.1.1\tools\lib\CSR102x_A06\libgatt_lib_ram.a(patch_george_rssi.o)
 .data          0x00000000        0x0 C:\CSR102x_SDK-3.1.1\tools\lib\CSR102x_A06\libgatt_lib_ram.a(patch_george_rssi.o)
 .bss           0x00000000        0x0 C:\CSR102x_SDK-3.1.1\tools\lib\CSR102x_A06\libgatt_lib_ram.a(patch_george_rssi.o)
 .text          0x00000000        0x0 C:\CSR102x_SDK-3.1.1\tools\lib\CSR102x_A06\libgatt_lib_ram.a(patch_reset.o)
 .data          0x00000000        0x0 C:\CSR102x_SDK-3.1.1\tools\lib\CSR102x_A06\libgatt_lib_ram.a(patch_reset.o)
 .bss           0x00000000        0x0 C:\CSR102x_SDK-3.1.1\tools\lib\CSR102x_A06\libgatt_lib_ram.a(patch_reset.o)
 .text          0x00000000        0x0 C:\CSR102x_SDK-3.1.1\tools\lib\CSR102x_A06\libgatt_lib_ram.a(patch_background.o)
 .data          0x00000000        0x0 C:\CSR102x_SDK-3.1.1\tools\lib\CSR102x_A06\libgatt_lib_ram.a(patch_background.o)
 .bss           0x00000000        0x0 C:\CSR102x_SDK-3.1.1\tools\lib\CSR102x_A06\libgatt_lib_ram.a(patch_background.o)
 .text          0x00000000        0x0 C:\CSR102x_SDK-3.1.1\tools\lib\CSR102x_A06\libgatt_lib_ram.a(patch_wd.o)
 .data          0x00000000        0x0 C:\CSR102x_SDK-3.1.1\tools\lib\CSR102x_A06\libgatt_lib_ram.a(patch_wd.o)
 .bss           0x00000000        0x0 C:\CSR102x_SDK-3.1.1\tools\lib\CSR102x_A06\libgatt_lib_ram.a(patch_wd.o)
 .text          0x00000000        0x0 C:\CSR102x_SDK-3.1.1\tools\lib\CSR102x_A06\libgatt_lib_ram.a(app_proxy_init.o)
 .data          0x00000000        0x0 C:\CSR102x_SDK-3.1.1\tools\lib\CSR102x_A06\libgatt_lib_ram.a(app_proxy_init.o)
 .bss           0x00000000        0x0 C:\CSR102x_SDK-3.1.1\tools\lib\CSR102x_A06\libgatt_lib_ram.a(app_proxy_init.o)
 .text          0x00000000        0x0 C:\CSR102x_SDK-3.1.1\tools\lib\CSR102x_A06\libgatt_lib_ram.a(profiling.o)
 .data          0x00000000        0x0 C:\CSR102x_SDK-3.1.1\tools\lib\CSR102x_A06\libgatt_lib_ram.a(profiling.o)
 .bss           0x00000000        0x0 C:\CSR102x_SDK-3.1.1\tools\lib\CSR102x_A06\libgatt_lib_ram.a(profiling.o)
 .text          0x00000000        0x0 C:\CSR102x_SDK-3.1.1\tools\lib\CSR102x_A06\libgatt_lib_ram.a(patch_hal_uart.o)
 .data          0x00000000        0x0 C:\CSR102x_SDK-3.1.1\tools\lib\CSR102x_A06\libgatt_lib_ram.a(patch_hal_uart.o)
 .bss           0x00000000        0x0 C:\CSR102x_SDK-3.1.1\tools\lib\CSR102x_A06\libgatt_lib_ram.a(patch_hal_uart.o)
 .text          0x00000000        0x0 C:\CSR102x_SDK-3.1.1\tools\lib\CSR102x_A06\libgatt_lib_ram.a(patch_sysop_fosc_trim.o)
 .data          0x00000000        0x0 C:\CSR102x_SDK-3.1.1\tools\lib\CSR102x_A06\libgatt_lib_ram.a(patch_sysop_fosc_trim.o)
 .bss           0x00000000        0x0 C:\CSR102x_SDK-3.1.1\tools\lib\CSR102x_A06\libgatt_lib_ram.a(patch_sysop_fosc_trim.o)
 .text          0x00000000        0x0 C:\CSR102x_SDK-3.1.1\tools\lib\CSR102x_A06\libgatt_lib_ram.a(patch_smem.o)
 .data          0x00000000        0x0 C:\CSR102x_SDK-3.1.1\tools\lib\CSR102x_A06\libgatt_lib_ram.a(patch_smem.o)
 .bss           0x00000000        0x0 C:\CSR102x_SDK-3.1.1\tools\lib\CSR102x_A06\libgatt_lib_ram.a(patch_smem.o)
 .text          0x00000000        0x0 C:\CSR102x_SDK-3.1.1\tools\lib\CSR102x_A06\libgatt_lib_ram.a(patch_activity.o)
 .data          0x00000000        0x0 C:\CSR102x_SDK-3.1.1\tools\lib\CSR102x_A06\libgatt_lib_ram.a(patch_activity.o)
 .bss           0x00000000        0x0 C:\CSR102x_SDK-3.1.1\tools\lib\CSR102x_A06\libgatt_lib_ram.a(patch_activity.o)
 .text.set_pio_dir_out_fast
                0x00000000        0x0 C:\CSR102x_SDK-3.1.1\tools\lib\CSR102x_A06\libgatt_lib_ram.a(patch_activity.o)
 .text.BtActivityInit
                0x00000000        0x0 C:\CSR102x_SDK-3.1.1\tools\lib\CSR102x_A06\libgatt_lib_ram.a(patch_activity.o)
 .text.BtActivityAntennaSwitchGetPos
                0x00000000        0x0 C:\CSR102x_SDK-3.1.1\tools\lib\CSR102x_A06\libgatt_lib_ram.a(patch_activity.o)
 .text.activity_btlex_event
                0x00000000        0x0 C:\CSR102x_SDK-3.1.1\tools\lib\CSR102x_A06\libgatt_lib_ram.a(patch_activity.o)
 .text.BtActivityAntennaSwitchEnable
                0x00000000        0x0 C:\CSR102x_SDK-3.1.1\tools\lib\CSR102x_A06\libgatt_lib_ram.a(patch_activity.o)
 .text.BtActivityFrontEndEnable
                0x00000000        0x0 C:\CSR102x_SDK-3.1.1\tools\lib\CSR102x_A06\libgatt_lib_ram.a(patch_activity.o)
 .text.BtActivityAntennaSwitchClose
                0x00000000        0x0 C:\CSR102x_SDK-3.1.1\tools\lib\CSR102x_A06\libgatt_lib_ram.a(patch_activity.o)
 .text.set_pio_fast
                0x00000000        0x0 C:\CSR102x_SDK-3.1.1\tools\lib\CSR102x_A06\libgatt_lib_ram.a(patch_activity.o)
 .text.BtActivityAntennaSwitchOpen
                0x00000000        0x0 C:\CSR102x_SDK-3.1.1\tools\lib\CSR102x_A06\libgatt_lib_ram.a(patch_activity.o)
 .text.CoexPioConfig
                0x00000000        0x0 C:\CSR102x_SDK-3.1.1\tools\lib\CSR102x_A06\libgatt_lib_ram.a(patch_activity.o)
 .text.BtActivitySignalEnable
                0x00000000        0x0 C:\CSR102x_SDK-3.1.1\tools\lib\CSR102x_A06\libgatt_lib_ram.a(patch_activity.o)
 .text.BtActivityAntennaSwitchLna
                0x00000000        0x0 C:\CSR102x_SDK-3.1.1\tools\lib\CSR102x_A06\libgatt_lib_ram.a(patch_activity.o)
 .text.handle_antenna_switch
                0x00000000        0x0 C:\CSR102x_SDK-3.1.1\tools\lib\CSR102x_A06\libgatt_lib_ram.a(patch_activity.o)
 .text.BtActivityAntennaSwitchPos
                0x00000000        0x0 C:\CSR102x_SDK-3.1.1\tools\lib\CSR102x_A06\libgatt_lib_ram.a(patch_activity.o)
 .text.BtActivitySignalClose
                0x00000000        0x0 C:\CSR102x_SDK-3.1.1\tools\lib\CSR102x_A06\libgatt_lib_ram.a(patch_activity.o)
 .text.BtActivitySignalOpen
                0x00000000        0x0 C:\CSR102x_SDK-3.1.1\tools\lib\CSR102x_A06\libgatt_lib_ram.a(patch_activity.o)
 .data.lna_enabled
                0x00000000        0x0 C:\CSR102x_SDK-3.1.1\tools\lib\CSR102x_A06\libgatt_lib_ram.a(patch_activity.o)
 .bss.current_activity_state
                0x00000000        0x0 C:\CSR102x_SDK-3.1.1\tools\lib\CSR102x_A06\libgatt_lib_ram.a(patch_activity.o)
 .data.rx_pio_g
                0x00000000        0x0 C:\CSR102x_SDK-3.1.1\tools\lib\CSR102x_A06\libgatt_lib_ram.a(patch_activity.o)
 .data.tx_pio_g
                0x00000000        0x0 C:\CSR102x_SDK-3.1.1\tools\lib\CSR102x_A06\libgatt_lib_ram.a(patch_activity.o)
 .bss.flags_g   0x00000000        0x0 C:\CSR102x_SDK-3.1.1\tools\lib\CSR102x_A06\libgatt_lib_ram.a(patch_activity.o)
 .bss.switch_tid
                0x00000000        0x0 C:\CSR102x_SDK-3.1.1\tools\lib\CSR102x_A06\libgatt_lib_ram.a(patch_activity.o)
 .bss.switch_period
                0x00000000        0x0 C:\CSR102x_SDK-3.1.1\tools\lib\CSR102x_A06\libgatt_lib_ram.a(patch_activity.o)
 .bss.disable_coex_on_internal_g
                0x00000000        0x0 C:\CSR102x_SDK-3.1.1\tools\lib\CSR102x_A06\libgatt_lib_ram.a(patch_activity.o)
 COMMON         0x00000000        0x0 C:\CSR102x_SDK-3.1.1\tools\lib\CSR102x_A06\libgatt_lib_ram.a(patch_activity.o)
 .text          0x00000000        0x0 C:\CSR102x_SDK-3.1.1\tools\lib\CSR102x_A06\libgatt_lib_ram.a(hw_patch_install.o)
 .data          0x00000000        0x0 C:\CSR102x_SDK-3.1.1\tools\lib\CSR102x_A06\libgatt_lib_ram.a(hw_patch_install.o)
 .bss           0x00000000        0x0 C:\CSR102x_SDK-3.1.1\tools\lib\CSR102x_A06\libgatt_lib_ram.a(hw_patch_install.o)

Memory Configuration

Name             Origin             Length             Attributes
p_rom            0x00000000         0x00018000
p_otp            0x00018000         0x00008000
p_cram0          0x00020000         0x00004000
p_cram1          0x00024000         0x00002000
p_cram2          0x00026000         0x00002000
p_smem           0x00028000         0x00020000
p_ram            0x00048000         0x00002000
p_flexi          0x00050000         0x00020000
p_app            0x00000000         0x00070000
d_mtp            0x00000080         0x00000080
d_pmem           0x00000200         0x00000200
d_imem           0x00000600         0x00000080
d_memarb         0x00000800         0x00000800
d_rom            0x00001000         0x00004000
d_fwromcram      0x00005000         0x00001000
d_appdata        0x00006000         0x00004000
d_appconst       0x0000a000         0x00001000
d_fwsmemotp      0x0000b000         0x00001000
d_appsmem        0x0000c000         0x00001000
d_ram            0x0000d000         0x00002000
d_app            0x00000000         0x0000f000
*default*        0x00000000         0xffffffff

Linker script and memory map

LOAD depend_Debug_CSR102x_A06\app_gatt_db.o
LOAD depend_Debug_CSR102x_A06\gaia_client.o
LOAD depend_Debug_CSR102x_A06\gaia_client_service.o
LOAD depend_Debug_CSR102x_A06\gaia_otau_client.o
LOAD depend_Debug_CSR102x_A06\conn_param_update.o
LOAD depend_Debug_CSR102x_A06\nvm_access.o
LOAD depend_Debug_CSR102x_A06\cm_common.o
LOAD depend_Debug_CSR102x_A06\cm_hal.o
LOAD depend_Debug_CSR102x_A06\cm_private.o
LOAD depend_Debug_CSR102x_A06\cm_security.o
LOAD depend_Debug_CSR102x_A06\cm_server.o
LOAD depend_Debug_CSR102x_A06\cm_observer.o
LOAD depend_Debug_CSR102x_A06\cm_peripheral.o
LOAD depend_Debug_CSR102x_A06\cm_central.o
LOAD depend_Debug_CSR102x_A06\cm_client.o
LOAD depend_Debug_CSR102x_A06\battery_hw.o
LOAD depend_Debug_CSR102x_A06\fast_pwm.o
LOAD depend_Debug_CSR102x_A06\iot_hw.o
LOAD depend_Debug_CSR102x_A06\csr_mesh_ps_ifce.o
LOAD depend_Debug_CSR102x_A06\attention_model_handler.o
LOAD depend_Debug_CSR102x_A06\battery_model_handler.o
LOAD depend_Debug_CSR102x_A06\core_mesh_handler.o
LOAD depend_Debug_CSR102x_A06\data_model_handler.o
LOAD depend_Debug_CSR102x_A06\light_model_handler.o
LOAD depend_Debug_CSR102x_A06\power_model_handler.o
LOAD depend_Debug_CSR102x_A06\app_util.o
LOAD depend_Debug_CSR102x_A06\connection_handler.o
LOAD depend_Debug_CSR102x_A06\advertisement_handler.o
LOAD depend_Debug_CSR102x_A06\time_model_handler.o
LOAD depend_Debug_CSR102x_A06\action_model_handler.o
LOAD depend_Debug_CSR102x_A06\largeobjecttransfer_model_handler.o
LOAD depend_Debug_CSR102x_A06\asset_model_handler.o
LOAD depend_Debug_CSR102x_A06\tracker_model_handler.o
LOAD depend_Debug_CSR102x_A06\app_otau_handler.o
LOAD depend_Debug_CSR102x_A06\scan_handler.o
LOAD depend_Debug_CSR102x_A06\app_otau_client_handler.o
LOAD depend_Debug_CSR102x_A06\extension_model_handler.o
LOAD depend_Debug_CSR102x_A06\gap_service.o
LOAD depend_Debug_CSR102x_A06\gatt_service.o
LOAD depend_Debug_CSR102x_A06\mesh_control_service.o
LOAD depend_Debug_CSR102x_A06\byte_utils.o
LOAD depend_Debug_CSR102x_A06\gaia.o
LOAD depend_Debug_CSR102x_A06\gaia_otau.o
LOAD depend_Debug_CSR102x_A06\gaia_service.o
LOAD depend_Debug_CSR102x_A06\main_app.o
LOAD depend_Debug_CSR102x_A06\app_mesh_handler.o
LOAD depend_Debug_CSR102x_A06\app_hw.o
LOAD depend_Debug_CSR102x_A06\ONESECOND.o
LOAD depend_Debug_CSR102x_A06\uart_queue.o
LOAD depend_Debug_CSR102x_A06\UARTMCU.o
LOAD depend_Debug_CSR102x_A06\pio_ctrlr_code.o
LOAD ..\mesh_common\mesh\libraries\CSR102x_A06\libcsrmesh.a
LOAD ..\mesh_common\mesh\libraries\CSR102x_A06\libasset_server.a
LOAD ..\mesh_common\mesh\libraries\CSR102x_A06\libasset_client.a
LOAD ..\mesh_common\mesh\libraries\CSR102x_A06\libtracker_server.a
LOAD ..\mesh_common\mesh\libraries\CSR102x_A06\libtracker_client.a
LOAD ..\mesh_common\mesh\libraries\CSR102x_A06\libaction_server.a
LOAD ..\mesh_common\mesh\libraries\CSR102x_A06\libtuning_server.a
LOAD ..\mesh_common\mesh\libraries\CSR102x_A06\libtime_server.a
LOAD ..\mesh_common\mesh\libraries\CSR102x_A06\libtime_client.a
LOAD ..\mesh_common\mesh\libraries\CSR102x_A06\liblight_server.a
LOAD ..\mesh_common\mesh\libraries\CSR102x_A06\libpower_server.a
LOAD ..\mesh_common\mesh\libraries\CSR102x_A06\libping_server.a
LOAD ..\mesh_common\mesh\libraries\CSR102x_A06\libattention_server.a
LOAD ..\mesh_common\mesh\libraries\CSR102x_A06\libdata_server.a
LOAD ..\mesh_common\mesh\libraries\CSR102x_A06\libdata_client.a
LOAD ..\mesh_common\mesh\libraries\CSR102x_A06\libbattery_server.a
LOAD ..\mesh_common\mesh\libraries\CSR102x_A06\liblargeobjecttransfer_server.a
LOAD ..\mesh_common\mesh\libraries\CSR102x_A06\liblargeobjecttransfer_client.a
LOAD ..\mesh_common\mesh\libraries\CSR102x_A06\libextension_client.a
LOAD ..\mesh_common\mesh\libraries\CSR102x_A06\libextension_server.a
LOAD ..\mesh_common\mesh\libraries\CSR102x_A06\libgroup_client.a
LOAD ..\mesh_common\mesh\libraries\CSR102x_A06\libgroup_server.a
LOAD C:\CSR102x_SDK-3.1.1\tools\lib\CSR102x_A06\libgatt_lib_ram.a
                0x00050000                PROG_APPCODE_START = PROG_FLEXI_START
                0x00000000                APP_SIGNATURE_SIZE = 0x0
                0x00000001                DRAM_APPDATA_MODEL = 0x1
                0x00000000                STORE_OFFSET = 0x0
LOAD C:\CSR102x_SDK-3.1.1\tools\lib\CSR102x_A06\rom_img.elf
                0x00028000                PROG_SMEM_START = 0x28000
                0x00018000                PROG_OTP_START = 0x18000
                0x00050000                PROG_FLEXI_START = 0x50000
                0x00048000                PROG_DRAM_START = 0x48000
                0x00005000                DATA_FW_ROM_CRAM_WINDOW = 0x5000
                0x0000b000                DATA_FW_SMEM_OTP_WINDOW = 0xb000
                0x0000c000                DATA_APP_SMEM_WINDOW = 0xc000
                0x00020000                PROG_CRAM0_START = 0x20000
                0x0000a000                DATA_APPCONST_START = DEFINED (DATA_APPCONST_OVERRIDE)?DATA_APPCONST_OVERRIDE:0xa000
                [0x00000001]                DRAM_APPDATA_MODEL = DEFINED (DRAM_APPDATA_MODEL)?DRAM_APPDATA_MODEL:0x0
                0x00006000                DATA_APPDATA_START = (DRAM_APPDATA_MODEL == 0x0)?DATA_APPHOLE_START:0x6000
                0x00002000                DATA_APPDATA_MAX_SIZE = (DRAM_APPDATA_MODEL == 0x0)?APPDATA_SIZE:(DRAM_APPDATA_MODEL == 0x1)?0x2000:0x4000
                0x80000000                $CODE$ = 0x80000000
                0x00000000                $DATA$ = 0x0
                0x0000ffe0                PROVIDE ($XAP_AH, 0xffe0)
                0x0000ffe1                PROVIDE ($XAP_AL, 0xffe1)
                0x0000ffe2                PROVIDE ($XAP_UXH, 0xffe2)
                0x0000ffe3                PROVIDE ($XAP_UXL, 0xffe3)
                0x0000ffe4                PROVIDE ($XAP_UY, 0xffe4)
                0x0000ffe5                PROVIDE ($XAP_IXH, 0xffe5)
                0x0000ffe6                PROVIDE ($XAP_IXL, 0xffe6)
                0x0000ffe7                PROVIDE ($XAP_IY, 0xffe7)
                0x00000001                ASSERT (DEFINED (DATA_APPCONST_START), DATA_APPCONST_START must be defined.)
                0x00000001                ASSERT (DEFINED (DATA_APPDATA_START), DATA_APPDATA_START not defined - check the firmware is valid.)
                [0x00050000]                PROG_APPCODE_START = DEFINED (PROG_APPCODE_START)?PROG_APPCODE_START:PROG_FLEXI_START
                0x00000001                ASSERT (DEFINED (APP_SIGNATURE_SIZE), APP_SIGNATURE_SIZE must be defined)
                0x00000010                APP_HASH_SIZE = 0x10
                [0x00000000]                STORE_OFFSET = DEFINED (STORE_OFFSET)?STORE_OFFSET:0x0
                0x00000000                STORE_SEG_BASE = (STORE_OFFSET & 0xfffff000)
                0x00000000                STORE_SEG_OFFSET = (STORE_OFFSET & 0xfff)
                0x00050000                PROG_FLEXI_OFFSET = (PROG_FLEXI_START - STORE_SEG_BASE)
                0x00000008                APP_ENC_IV_SIZE = 0x8
                0x00000010                APPHEADER_SIZE = (0x8 + APP_ENC_IV_SIZE)
                0x00000001                ASSERT (((STORE_OFFSET % APPHEADER_SIZE) == 0x0), STORE_OFFSET is not an exact multiple of APPHEADER_SIZE)

.appheader      0x00050000       0x10 load address 0x80050000
                0x00050000                PROG_APPCRT_START = .
 *app_proxy_crt.o(.text)
 .text          0x00050000        0x8 C:\CSR102x_SDK-3.1.1\tools\lib\CSR102x_A06\libgatt_lib_ram.a(app_proxy_crt.o)
                0x00050005                _app_store_header_fw_init
 *app_proxy_crt.o(.text.*)
                0x00050010                . = ALIGN (APPHEADER_SIZE)
 *fill*         0x00050008       0x10 00
                0x00050010                PROG_APPCRT_END = .

.appconst       0x0000a010      0x41d load address 0x00050010
                0x0000a010                D_APPCONST_START = .
 *(CONST)
 *(CONST.*)
 *(.rodata)
 .rodata        0x0000a010        0x8 depend_Debug_CSR102x_A06\cm_hal.o
 .rodata        0x0000a018        0x2 depend_Debug_CSR102x_A06\cm_peripheral.o
 .rodata        0x0000a01a        0x2 depend_Debug_CSR102x_A06\advertisement_handler.o
 .rodata        0x0000a01c        0x9 depend_Debug_CSR102x_A06\app_otau_handler.o
 .rodata        0x0000a025       0x1b depend_Debug_CSR102x_A06\app_otau_client_handler.o
 .rodata        0x0000a040        0x8 depend_Debug_CSR102x_A06\gap_service.o
 .rodata        0x0000a048       0x12 depend_Debug_CSR102x_A06\gaia_otau.o
 *(.rodata.*)
 .rodata.handleConnMgrEvent
                0x0000a05a        0xc depend_Debug_CSR102x_A06\gaia_client_service.o
 .rodata.GaiaOtauClientUpdateConnStatus
                0x0000a066       0x11 depend_Debug_CSR102x_A06\gaia_otau_client.o
 .rodata.HandleGaiaResponseNotification
                0x0000a077       0x18 depend_Debug_CSR102x_A06\gaia_otau_client.o
 .rodata.ConnectionParamUpdateEvent
                0x0000a08f        0x5 depend_Debug_CSR102x_A06\conn_param_update.o
 .rodata.CMClientHandleProcessLMEvent
                0x0000a094       0x20 depend_Debug_CSR102x_A06\cm_client.o
 .rodata.fh_tx_pwr_map
                0x0000a0b4       0x10 depend_Debug_CSR102x_A06\core_mesh_handler.o
 .rodata.appHandleConnMgrProcEvent
                0x0000a0c4       0x1c depend_Debug_CSR102x_A06\connection_handler.o
 .rodata.C.5..3989.
                0x0000a0e0        0x3 depend_Debug_CSR102x_A06\advertisement_handler.o
 .rodata.otauCallbackValidateHeaderBody
                0x0000a0e3        0x7 depend_Debug_CSR102x_A06\app_otau_handler.o
 .rodata.appHandleGaiaOtauEvent
                0x0000a0ea        0x8 depend_Debug_CSR102x_A06\app_otau_handler.o
 .rodata.appHandleGaiaOtauClientEvent
                0x0000a0f2        0x6 depend_Debug_CSR102x_A06\app_otau_client_handler.o
 .rodata.handleAccessWrite
                0x0000a0f8        0x7 depend_Debug_CSR102x_A06\mesh_control_service.o
 .rodata.handleOtauFileTransfer
                0x0000a0ff        0x8 depend_Debug_CSR102x_A06\gaia_otau.o
 .rodata.GaiaOtauHandleVmUpgradeControlCommand
                0x0000a107       0x17 depend_Debug_CSR102x_A06\gaia_otau.o
 .rodata.GaiaOtauHandleStoreUpdateMsg
                0x0000a11e        0xf depend_Debug_CSR102x_A06\gaia_otau.o
 .rodata.handleConnMgrProcedureEvent
                0x0000a12d       0x17 depend_Debug_CSR102x_A06\gaia_service.o
 .rodata.masp_enc_key
                0x0000a144       0x1f ..\mesh_common\mesh\libraries\CSR102x_A06\libcsrmesh.a(csr_mesh_mtl.o)
 .rodata.masp_nw_iv
                0x0000a163        0x8 ..\mesh_common\mesh\libraries\CSR102x_A06\libcsrmesh.a(csr_mesh_mtl.o)
 .rodata.masp_nw_key
                0x0000a16b       0x10 ..\mesh_common\mesh\libraries\CSR102x_A06\libcsrmesh.a(csr_mesh_mtl.o)
 .rodata.str2.2
                0x0000a17b        0x6 ..\mesh_common\mesh\libraries\CSR102x_A06\libcsrmesh.a(csr_mesh_ec_alloc.o)
 .rodata.handleMaspMessage
                0x0000a181       0x17 ..\mesh_common\mesh\libraries\CSR102x_A06\libcsrmesh.a(csr_mesh_masp.o)
 .rodata.str2.2
                0x0000a198       0x14 ..\mesh_common\mesh\libraries\CSR102x_A06\libcsrmesh.a(csr_mesh_masp.o)
 .rodata.masp_msg_len
                0x0000a1ac       0x19 ..\mesh_common\mesh\libraries\CSR102x_A06\libcsrmesh.a(csr_mesh_masp.o)
 .rodata.sha256_init_table
                0x0000a1c5       0x10 ..\mesh_common\mesh\libraries\CSR102x_A06\libcsrmesh.a(csr_mesh_sha256_initialise.o)
 .rodata.csr_mesh_ad_data
                0x0000a1d5        0x3 ..\mesh_common\mesh\libraries\CSR102x_A06\libcsrmesh.a(csr1010_scheduler.o)
 .rodata.handleConfigGetDeviceInfo
                0x0000a1d8        0x9 ..\mesh_common\mesh\libraries\CSR102x_A06\libcsrmesh.a(csr_mesh_config_model.o)
 .rodata.configModelServerHandler
                0x0000a1e1       0x11 ..\mesh_common\mesh\libraries\CSR102x_A06\libcsrmesh.a(csr_mesh_config_model.o)
 .rodata.P192_curve_generator_x
                0x0000a1f2        0xd ..\mesh_common\mesh\libraries\CSR102x_A06\libcsrmesh.a(csr_mesh_ec_math.o)
 .rodata.P192_curve_generator_y
                0x0000a1ff        0xd ..\mesh_common\mesh\libraries\CSR102x_A06\libcsrmesh.a(csr_mesh_ec_math.o)
 .rodata.sha256_consts
                0x0000a20c       0x80 ..\mesh_common\mesh\libraries\CSR102x_A06\libcsrmesh.a(csr_mesh_sha256_calc_ith_hash_val.o)
 .rodata.ram_build_identifier_integer
                0x0000a28c        0x1 C:\CSR102x_SDK-3.1.1\tools\lib\CSR102x_A06\libgatt_lib_ram.a(id_ram.o)
                0x0000a28c                ram_build_identifier_integer
 .rodata.ram_build_identifier_string
                0x0000a28d       0x25 C:\CSR102x_SDK-3.1.1\tools\lib\CSR102x_A06\libgatt_lib_ram.a(id_ram.o)
                0x0000a28d                ram_build_identifier_string
 .rodata.patch_table_data
                0x0000a2b2       0x36 C:\CSR102x_SDK-3.1.1\tools\lib\CSR102x_A06\libgatt_lib_ram.a(sw_patch_ram.o)
 .rodata.patch_shared_reset
                0x0000a2e8        0x5 C:\CSR102x_SDK-3.1.1\tools\lib\CSR102x_A06\libgatt_lib_ram.a(patch_reset.o)
 .rodata.p_halmem_api_rom
                0x0000a2ed        0x5 C:\CSR102x_SDK-3.1.1\tools\lib\CSR102x_A06\libgatt_lib_ram.a(patch_reset.o)
                0x0000a2ed                ___libgatt_lib_db_5602
 .rodata.p_halmem_smem_instance
                0x0000a2f2       0x12 C:\CSR102x_SDK-3.1.1\tools\lib\CSR102x_A06\libgatt_lib_ram.a(patch_reset.o)
 .rodata.haluart_api_patch
                0x0000a304        0x1 C:\CSR102x_SDK-3.1.1\tools\lib\CSR102x_A06\libgatt_lib_ram.a(patch_hal_uart.o)
                0x0000a304                ___libgatt_lib_db_5625
 .rodata.patched_uart_instances
                0x0000a305       0x12 C:\CSR102x_SDK-3.1.1\tools\lib\CSR102x_A06\libgatt_lib_ram.a(patch_hal_uart.o)
 *(.pio_ctrlr_code)
                0x0000a317                APP_BUILD_VERSION = .
 *(.app_bld_ver)
                0x0000a317                PROG_PATCH_ADDRESS = .
 *(.hw_patch)
 .hw_patch      0x0000a317      0x116 C:\CSR102x_SDK-3.1.1\tools\lib\CSR102x_A06\libgatt_lib_ram.a(patch_flashheart_d06.o)
                0x0000a317                hw_patch
                0x0000a42d                PROG_PATCH_END = .
                0x0000a42d                D_APPCONST_END = .
                0x0000041d                APPCONST_SIZE = SIZEOF (.appconst)
                0x00000001                ASSERT (((D_APPCONST_START & 0x1000) == (D_APPCONST_END & 0x1000)), Application uses too much CONST data (page boundary exceeded))

.progapp_appconst
                0x00050010      0x41d
                0x0005042d                . = (. + APPCONST_SIZE)
 *fill*         0x00050010      0x83a 00

.appdata        0x00006000      0x11b load address 0x0005042d
                0x00006000                DATA_APPINITDATA_START = .
 *(.data)
 *(.data.*)
 .data.gattDatabase
                0x00006000       0xb8 depend_Debug_CSR102x_A06\app_gatt_db.o
                0x00006000                gattDatabase
 .data.g_gaia_client_service_uuid
                0x000060b8        0x8 depend_Debug_CSR102x_A06\gaia_client_service.o
 .data.g_gaia_client_handler
                0x000060c0        0x2 depend_Debug_CSR102x_A06\gaia_client_service.o
 .data.g_nvm_type
                0x000060c2        0x1 depend_Debug_CSR102x_A06\nvm_access.o
 .data.csr_mesh_pskey_offset_table
                0x000060c3       0x1e depend_Debug_CSR102x_A06\csr_mesh_ps_ifce.o
 .data.g_cm_app_handler
                0x000060e1        0x2 depend_Debug_CSR102x_A06\connection_handler.o
 .data.g_service_handler
                0x000060e3        0x2 depend_Debug_CSR102x_A06\gap_service.o
 .data.g_server_handler
                0x000060e5        0x2 depend_Debug_CSR102x_A06\gatt_service.o
 .data.g_mesh_server_handlers
                0x000060e7        0x2 depend_Debug_CSR102x_A06\mesh_control_service.o
 .data.g_gaia_server_handlers
                0x000060e9        0x2 depend_Debug_CSR102x_A06\gaia_service.o
 .data.mesh_ad_data
                0x000060eb        0x3 depend_Debug_CSR102x_A06\app_mesh_handler.o
                0x000060eb                mesh_ad_data
 .data.vid_pid_info
                0x000060ee        0x4 depend_Debug_CSR102x_A06\app_mesh_handler.o
                0x000060ee                vid_pid_info
 .data.appearance
                0x000060f2        0xd depend_Debug_CSR102x_A06\app_mesh_handler.o
                0x000060f2                appearance
 .data.g_headPtr
                0x000060ff        0x1 depend_Debug_CSR102x_A06\uart_queue.o
                0x000060ff                g_headPtr
 .data.g_writePtr
                0x00006100        0x1 depend_Debug_CSR102x_A06\uart_queue.o
                0x00006100                g_writePtr
 .data.g_readPtr
                0x00006101        0x1 depend_Debug_CSR102x_A06\uart_queue.o
                0x00006101                g_readPtr
 .data.key_iv_status_values
                0x00006102        0x8 ..\mesh_common\mesh\libraries\CSR102x_A06\libcsrmesh.a(csr_mesh_masp.o)
 .data.P192_p   0x0000610a        0xd ..\mesh_common\mesh\libraries\CSR102x_A06\libcsrmesh.a(csr_mesh_ec_math.o)
                0x0000610a                ___libcsrmesh_132
 .data.PATCH_DBG_UART_CONFIG
                0x00006117        0x1 C:\CSR102x_SDK-3.1.1\tools\lib\CSR102x_A06\libgatt_lib_ram.a(patch_uart.o)
                0x00006117                ___libgatt_lib_db_5598
 .data.patched_halbleradio_api
                0x00006118        0x1 C:\CSR102x_SDK-3.1.1\tools\lib\CSR102x_A06\libgatt_lib_ram.a(patch_hal_bleradio.o)
 .data.first_run
                0x00006119        0x1 C:\CSR102x_SDK-3.1.1\tools\lib\CSR102x_A06\libgatt_lib_ram.a(patch_sysop_fosc_trim.o)
                0x00006119                ___libgatt_lib_db_5630
 .data.switch_pio_g
                0x0000611a        0x1 C:\CSR102x_SDK-3.1.1\tools\lib\CSR102x_A06\libgatt_lib_ram.a(patch_activity.o)
                0x0000611b                DATA_APPINITDATA_END = .
                0x0000011b                APPINITDATA_SIZE = SIZEOF (.appdata)
                0x00000001                ASSERT (((APPCONST_SIZE + APPINITDATA_SIZE) <= 0x1000), Application uses too much CONST / Initialised data)

.progapp_appdata
                0x0005042d      0x11b
                0x00050548                . = (. + APPINITDATA_SIZE)
 *fill*         0x0005042d      0x236 00

.patchtext      0x00050548        0x0 load address 0x80050548
                0x00050548                PROG_SW_PATCH_FN_START = .
 *(.patch_text)
 *(.patch_text.*)
                0x00050548                PROG_SW_PATCH_FN_END = .

.apptext        0x00050548     0x98c8 load address 0x80050548
 *(.extra_crt)
 *(.text)
 .text          0x00050548       0x2f C:\CSR102x_SDK-3.1.1\tools\lib\CSR102x_A06\libgatt_lib_ram.a(sm_ram.o)
                0x00050548                ___libgatt_lib_db_962
                0x00050571                SMInit
 .text          0x00050577        0x3 C:\CSR102x_SDK-3.1.1\tools\lib\CSR102x_A06\libgatt_lib_ram.a(sm_key_req_api.o)
                0x00050577                SMKeyRequestRsp
 .text          0x0005057a        0x3 C:\CSR102x_SDK-3.1.1\tools\lib\CSR102x_A06\libgatt_lib_ram.a(sm_div_approval_api.o)
                0x0005057a                SMDivApprovalRsp
 .text          0x0005057d        0x3 C:\CSR102x_SDK-3.1.1\tools\lib\CSR102x_A06\libgatt_lib_ram.a(sm_pairing_auth_api.o)
                0x0005057d                SMPairingAuthRsp
 .text          0x00050580        0x6 C:\CSR102x_SDK-3.1.1\tools\lib\CSR102x_A06\libgatt_lib_ram.a(sm_ltk_api.o)
                0x00050580                SMLongTermKeyRsp
 *(.text.*)
 .text.GattGetDatabase
                0x00050586        0x9 depend_Debug_CSR102x_A06\app_gatt_db.o
                0x00050586                GattGetDatabase
 .text.gaiaHandleNotificationCommand
                0x0005058f       0x26 depend_Debug_CSR102x_A06\gaia_client.o
 .text.gaiaHandleDataTransferCommandAck
                0x000505b5       0x26 depend_Debug_CSR102x_A06\gaia_client.o
 .text.GAIAClientProcessCommand
                0x000505db       0x47 depend_Debug_CSR102x_A06\gaia_client.o
                0x000505db                GAIAClientProcessCommand
 .text.GaiaClientSendCommandPacket
                0x00050622       0x36 depend_Debug_CSR102x_A06\gaia_client.o
                0x00050622                GaiaClientSendCommandPacket
 .text.GaiaClientSendDisconnectPacket
                0x00050658       0x29 depend_Debug_CSR102x_A06\gaia_client.o
                0x00050658                GaiaClientSendDisconnectPacket
 .text.GaiaClientSendConnectPacket
                0x00050681       0x29 depend_Debug_CSR102x_A06\gaia_client.o
                0x00050681                GaiaClientSendConnectPacket
 .text.GaiaClientSendAcknowledgement
                0x000506aa       0x37 depend_Debug_CSR102x_A06\gaia_client.o
                0x000506aa                GaiaClientSendAcknowledgement
 .text.initialiseDescriptor
                0x000506e1        0xd depend_Debug_CSR102x_A06\gaia_client_service.o
 .text.initialiseCharacteristics
                0x000506ee      0x136 depend_Debug_CSR102x_A06\gaia_client_service.o
 .text.gaiaClientDataInit
                0x00050824       0x72 depend_Debug_CSR102x_A06\gaia_client_service.o
 .text.readDataFromNVM
                0x00050896        0x3 depend_Debug_CSR102x_A06\gaia_client_service.o
 .text.validBondId
                0x00050899       0x1e depend_Debug_CSR102x_A06\gaia_client_service.o
 .text.storeGattHandles
                0x000508b7        0x3 depend_Debug_CSR102x_A06\gaia_client_service.o
 .text.configureResponseConfig
                0x000508ba       0x39 depend_Debug_CSR102x_A06\gaia_client_service.o
 .text.handleCMClientConnectionNotify
                0x000508f3       0x4d depend_Debug_CSR102x_A06\gaia_client_service.o
 .text.handleCMClientBondingNotify
                0x00050940       0x20 depend_Debug_CSR102x_A06\gaia_client_service.o
 .text.handleCMClientDiscoveryComplete
                0x00050960       0x25 depend_Debug_CSR102x_A06\gaia_client_service.o
 .text.handleCMClientNotification
                0x00050985       0x21 depend_Debug_CSR102x_A06\gaia_client_service.o
 .text.handleCMClientWriteCfm
                0x000509a6       0x31 depend_Debug_CSR102x_A06\gaia_client_service.o
 .text.handleConnMgrEvent
                0x000509d7       0x20 depend_Debug_CSR102x_A06\gaia_client_service.o
 .text.GaiaInitClientService
                0x000509f7       0x1c depend_Debug_CSR102x_A06\gaia_client_service.o
                0x000509f7                GaiaInitClientService
 .text.GaiaClientIsServiceDiscovered
                0x00050a13       0x10 depend_Debug_CSR102x_A06\gaia_client_service.o
                0x00050a13                GaiaClientIsServiceDiscovered
 .text.GaiaWriteCommandEndpoint
                0x00050a23       0x3e depend_Debug_CSR102x_A06\gaia_client_service.o
                0x00050a23                GaiaWriteCommandEndpoint
 .text.GaiaConfigureService
                0x00050a61       0x20 depend_Debug_CSR102x_A06\gaia_client_service.o
                0x00050a61                GaiaConfigureService
 .text.notifyApplication
                0x00050a81       0x1c depend_Debug_CSR102x_A06\gaia_otau_client.o
 .text.upgradeDeviceResetTransferState
                0x00050a9d        0x7 depend_Debug_CSR102x_A06\gaia_otau_client.o
 .text.upgradeDeviceHandleStartCfm
                0x00050aa4       0x88 depend_Debug_CSR102x_A06\gaia_otau_client.o
 .text.upgradeSendData
                0x00050b2c       0x37 depend_Debug_CSR102x_A06\gaia_otau_client.o
 .text.upgradeDeviceHandleDataBytesReq
                0x00050b63       0x30 depend_Debug_CSR102x_A06\gaia_otau_client.o
 .text.upgradeDeviceHandleAbortCfm
                0x00050b93        0xe depend_Debug_CSR102x_A06\gaia_otau_client.o
 .text.upgradeDeviceHandleTransferCompleteInd
                0x00050ba1       0x5c depend_Debug_CSR102x_A06\gaia_otau_client.o
 .text.upgradeDeviceHandleCommitReq
                0x00050bfd       0x44 depend_Debug_CSR102x_A06\gaia_otau_client.o
 .text.upgradeHandleErrorWarnInd
                0x00050c41       0x1f depend_Debug_CSR102x_A06\gaia_otau_client.o
 .text.upgradeDeviceHandleCompleteInd
                0x00050c60       0x1a depend_Debug_CSR102x_A06\gaia_otau_client.o
 .text.upgradeDeviceSendStartReq
                0x00050c7a       0x26 depend_Debug_CSR102x_A06\gaia_otau_client.o
 .text.upgradeDeviceHandleSyncCfm
                0x00050ca0       0x7b depend_Debug_CSR102x_A06\gaia_otau_client.o
 .text.upgradeSendIsValidationDoneRequest
                0x00050d1b       0x29 depend_Debug_CSR102x_A06\gaia_otau_client.o
 .text.handleValidationTimerExpiry
                0x00050d44       0x15 depend_Debug_CSR102x_A06\gaia_otau_client.o
 .text.upgradeDeviceHandleIsValidationDoneCfm
                0x00050d59       0x3d depend_Debug_CSR102x_A06\gaia_otau_client.o
 .text.GaiaOtauClientInitEvent
                0x00050d96        0x7 depend_Debug_CSR102x_A06\gaia_otau_client.o
                0x00050d96                GaiaOtauClientInitEvent
 .text.GaiaOtauClientConnNotifyEvent
                0x00050d9d       0x10 depend_Debug_CSR102x_A06\gaia_otau_client.o
                0x00050d9d                GaiaOtauClientConnNotifyEvent
 .text.GaiaOtauClientRegisterCallback
                0x00050dad        0xa depend_Debug_CSR102x_A06\gaia_otau_client.o
                0x00050dad                GaiaOtauClientRegisterCallback
 .text.GaiaOtauClientStartUpgrade
                0x00050db7        0x9 depend_Debug_CSR102x_A06\gaia_otau_client.o
                0x00050db7                GaiaOtauClientStartUpgrade
 .text.GaiaOtauClientSendData
                0x00050dc0       0x40 depend_Debug_CSR102x_A06\gaia_otau_client.o
                0x00050dc0                GaiaOtauClientSendData
 .text.GaiaOtauClientGetState
                0x00050e00        0x3 depend_Debug_CSR102x_A06\gaia_otau_client.o
                0x00050e00                GaiaOtauClientGetState
 .text.GaiaOtauClientResetTransferState
                0x00050e03       0x16 depend_Debug_CSR102x_A06\gaia_otau_client.o
                0x00050e03                GaiaOtauClientResetTransferState
 .text.GaiaOtauClientUpdateConnStatus
                0x00050e19       0x36 depend_Debug_CSR102x_A06\gaia_otau_client.o
                0x00050e19                GaiaOtauClientUpdateConnStatus
 .text.GaiaOtauClientConfigurationComplete
                0x00050e4f        0xc depend_Debug_CSR102x_A06\gaia_otau_client.o
                0x00050e4f                GaiaOtauClientConfigurationComplete
 .text.HandleUpgradeConnectAck
                0x00050e5b       0x75 depend_Debug_CSR102x_A06\gaia_otau_client.o
                0x00050e5b                HandleUpgradeConnectAck
 .text.HandleUpgradeControlRequestAck
                0x00050ed0       0x35 depend_Debug_CSR102x_A06\gaia_otau_client.o
                0x00050ed0                HandleUpgradeControlRequestAck
 .text.HandleUpgradeDisconnectAck
                0x00050f05        0xc depend_Debug_CSR102x_A06\gaia_otau_client.o
                0x00050f05                HandleUpgradeDisconnectAck
 .text.HandleGaiaResponseNotification
                0x00050f11       0x78 depend_Debug_CSR102x_A06\gaia_otau_client.o
                0x00050f11                HandleGaiaResponseNotification
 .text.handleGapCppTimerExpiry
                0x00050f89       0x15 depend_Debug_CSR102x_A06\conn_param_update.o
 .text.requestConnParamUpdate
                0x00050f9e       0x55 depend_Debug_CSR102x_A06\conn_param_update.o
 .text.handleConnUpdateSignallingInd
                0x00050ff3        0xd depend_Debug_CSR102x_A06\conn_param_update.o
 .text.handleConnParamUpdateCfm
                0x00051000       0x5b depend_Debug_CSR102x_A06\conn_param_update.o
 .text.handleConnParamUpdateInd
                0x0005105b       0x29 depend_Debug_CSR102x_A06\conn_param_update.o
 .text.handleCmConnectionUpdated
                0x00051084       0x28 depend_Debug_CSR102x_A06\conn_param_update.o
 .text.handleServerAccessed
                0x000510ac       0x23 depend_Debug_CSR102x_A06\conn_param_update.o
 .text.processNewParams
                0x000510cf       0x56 depend_Debug_CSR102x_A06\conn_param_update.o
 .text.RequestConnParamsUpdate
                0x00051125       0x31 depend_Debug_CSR102x_A06\conn_param_update.o
                0x00051125                RequestConnParamsUpdate
 .text.RequestConnParamsUpdateOnce
                0x00051156       0x32 depend_Debug_CSR102x_A06\conn_param_update.o
                0x00051156                RequestConnParamsUpdateOnce
 .text.StopConnParamsUpdate
                0x00051188        0xd depend_Debug_CSR102x_A06\conn_param_update.o
                0x00051188                StopConnParamsUpdate
 .text.GetUpdatedConnParams
                0x00051195       0x11 depend_Debug_CSR102x_A06\conn_param_update.o
                0x00051195                GetUpdatedConnParams
 .text.ConnectionParamUpdateEvent
                0x000511a6       0x23 depend_Debug_CSR102x_A06\conn_param_update.o
                0x000511a6                ConnectionParamUpdateEvent
 .text.ConnectionParamUpdateSetCallback
                0x000511c9        0xa depend_Debug_CSR102x_A06\conn_param_update.o
                0x000511c9                ConnectionParamUpdateSetCallback
 .text.reportPanic
                0x000511d3        0x7 depend_Debug_CSR102x_A06\nvm_access.o
 .text.nvmReadSanity
                0x000511da       0x27 depend_Debug_CSR102x_A06\nvm_access.o
 .text.nvmDisable
                0x00051201        0x1 depend_Debug_CSR102x_A06\nvm_access.o
 .text.Nvm_Init
                0x00051202       0x1e depend_Debug_CSR102x_A06\nvm_access.o
                0x00051202                Nvm_Init
 .text.Nvm_Read
                0x00051220       0x11 depend_Debug_CSR102x_A06\nvm_access.o
                0x00051220                Nvm_Read
 .text.Nvm_Write
                0x00051231       0x19 depend_Debug_CSR102x_A06\nvm_access.o
                0x00051231                Nvm_Write
 .text.Nvm_Read_Secure_Key
                0x0005124a        0xd depend_Debug_CSR102x_A06\nvm_access.o
                0x0005124a                Nvm_Read_Secure_Key
 .text.NvmProcessEvent
                0x00051257      0x15f depend_Debug_CSR102x_A06\nvm_access.o
                0x00051257                NvmProcessEvent
 .text.asyncApiTimeout
                0x000513b6        0x9 depend_Debug_CSR102x_A06\cm_common.o
 .text.CMInit   0x000513bf       0x2c depend_Debug_CSR102x_A06\cm_common.o
                0x000513bf                CMInit
 .text.CMDisconnect
                0x000513eb       0x12 depend_Debug_CSR102x_A06\cm_common.o
                0x000513eb                CMDisconnect
 .text.CMGetDeviceBondState
                0x000513fd       0x12 depend_Debug_CSR102x_A06\cm_common.o
                0x000513fd                CMGetDeviceBondState
 .text.CMGetDevState
                0x0005140f       0x1c depend_Debug_CSR102x_A06\cm_common.o
                0x0005140f                CMGetDevState
 .text.CMGetPeerDeviceRole
                0x0005142b       0x1c depend_Debug_CSR102x_A06\cm_common.o
                0x0005142b                CMGetPeerDeviceRole
 .text.CMGetBondIdFromDeviceId
                0x00051447       0x26 depend_Debug_CSR102x_A06\cm_common.o
                0x00051447                CMGetBondIdFromDeviceId
 .text.CMGetBdAdressFromDeviceId
                0x0005146d       0x24 depend_Debug_CSR102x_A06\cm_common.o
                0x0005146d                CMGetBdAdressFromDeviceId
 .text.CMConnParamUpdateReq
                0x00051491        0x8 depend_Debug_CSR102x_A06\cm_common.o
                0x00051491                CMConnParamUpdateReq
 .text.CMConnectionUpdateSignalingRsp
                0x00051499        0xa depend_Debug_CSR102x_A06\cm_common.o
                0x00051499                CMConnectionUpdateSignalingRsp
 .text.CMGetDevConnParam
                0x000514a3       0x21 depend_Debug_CSR102x_A06\cm_common.o
                0x000514a3                CMGetDevConnParam
 .text.CMConfigureRadioEvent
                0x000514c4        0xe depend_Debug_CSR102x_A06\cm_common.o
                0x000514c4                CMConfigureRadioEvent
 .text.CMReadRssi
                0x000514d2        0xf depend_Debug_CSR102x_A06\cm_common.o
                0x000514d2                CMReadRssi
 .text.CMUuidEqual
                0x000514e1       0x83 depend_Debug_CSR102x_A06\cm_common.o
                0x000514e1                CMUuidEqual
 .text.CMIsAddressResolvableRandom
                0x00051564       0x14 depend_Debug_CSR102x_A06\cm_common.o
                0x00051564                CMIsAddressResolvableRandom
 .text.CMEnableEarlyWakeup
                0x00051578        0xb depend_Debug_CSR102x_A06\cm_common.o
                0x00051578                CMEnableEarlyWakeup
 .text.CMSignalNumberOfCompletedPackets
                0x00051583        0x8 depend_Debug_CSR102x_A06\cm_common.o
                0x00051583                CMSignalNumberOfCompletedPackets
 .text.getDeviceIdFromCid
                0x0005158b       0x26 depend_Debug_CSR102x_A06\cm_hal.o
 .text.parseName
                0x000515b1       0x87 depend_Debug_CSR102x_A06\cm_hal.o
 .text.sendNotificationCfmTimer
                0x00051638       0x17 depend_Debug_CSR102x_A06\cm_hal.o
 .text.HALGetMsgId
                0x0005164f        0x6 depend_Debug_CSR102x_A06\cm_hal.o
                0x0005164f                HALGetMsgId
 .text.HALGetMsg
                0x00051655        0x6 depend_Debug_CSR102x_A06\cm_hal.o
                0x00051655                HALGetMsg
 .text.HALAddNewDevice
                0x0005165b       0x24 depend_Debug_CSR102x_A06\cm_hal.o
                0x0005165b                HALAddNewDevice
 .text.HALGetDeviceId
                0x0005167f      0x197 depend_Debug_CSR102x_A06\cm_hal.o
                0x0005167f                HALGetDeviceId
 .text.HALParseConnCompleteInd
                0x00051816        0xb depend_Debug_CSR102x_A06\cm_hal.o
                0x00051816                HALParseConnCompleteInd
 .text.HALParseDisconnCompleteInd
                0x00051821       0x13 depend_Debug_CSR102x_A06\cm_hal.o
                0x00051821                HALParseDisconnCompleteInd
 .text.HALParseEncChangeInd
                0x00051834        0xb depend_Debug_CSR102x_A06\cm_hal.o
                0x00051834                HALParseEncChangeInd
 .text.HALParseRadioEventInd
                0x0005183f        0xc depend_Debug_CSR102x_A06\cm_hal.o
                0x0005183f                HALParseRadioEventInd
 .text.HALParseAdvertisingReportInd
                0x0005184b       0x2b depend_Debug_CSR102x_A06\cm_hal.o
                0x0005184b                HALParseAdvertisingReportInd
 .text.HALIsAdvertisingReport
                0x00051876       0x18 depend_Debug_CSR102x_A06\cm_hal.o
                0x00051876                HALIsAdvertisingReport
 .text.HALGapLsFindAdType
                0x0005188e        0xe depend_Debug_CSR102x_A06\cm_hal.o
                0x0005188e                HALGapLsFindAdType
 .text.HALGapSetPeripheralMode
                0x0005189c        0xd depend_Debug_CSR102x_A06\cm_hal.o
                0x0005189c                HALGapSetPeripheralMode
 .text.HALServerWriteInit
                0x000518a9        0x5 depend_Debug_CSR102x_A06\cm_hal.o
                0x000518a9                HALServerWriteInit
 .text.HALParseAccessWriteInd
                0x000518ae        0xc depend_Debug_CSR102x_A06\cm_hal.o
                0x000518ae                HALParseAccessWriteInd
 .text.HALParseAccessReadInd
                0x000518ba        0xc depend_Debug_CSR102x_A06\cm_hal.o
                0x000518ba                HALParseAccessReadInd
 .text.HALParseDiscoverServiceInd
                0x000518c6        0x8 depend_Debug_CSR102x_A06\cm_hal.o
                0x000518c6                HALParseDiscoverServiceInd
 .text.HALParseReadCharValCfm
                0x000518ce       0x10 depend_Debug_CSR102x_A06\cm_hal.o
                0x000518ce                HALParseReadCharValCfm
 .text.HALParseNotifInd
                0x000518de        0xc depend_Debug_CSR102x_A06\cm_hal.o
                0x000518de                HALParseNotifInd
 .text.HALSMInit
                0x000518ea        0xb depend_Debug_CSR102x_A06\cm_hal.o
                0x000518ea                HALSMInit
 .text.HALParseSmPairingAuthInd
                0x000518f5        0x4 depend_Debug_CSR102x_A06\cm_hal.o
                0x000518f5                HALParseSmPairingAuthInd
 .text.HALSendValueNotificationExt
                0x000518f9       0x16 depend_Debug_CSR102x_A06\cm_hal.o
                0x000518f9                HALSendValueNotificationExt
 .text.HALSendValueNotification
                0x0005190f       0x3a depend_Debug_CSR102x_A06\cm_hal.o
                0x0005190f                HALSendValueNotification
 .text.HALSendLongTermKeyAuthRsp
                0x00051949       0x13 depend_Debug_CSR102x_A06\cm_hal.o
                0x00051949                HALSendLongTermKeyAuthRsp
 .text.HALSMKeyRequestResponse
                0x0005195c        0xc depend_Debug_CSR102x_A06\cm_hal.o
                0x0005195c                HALSMKeyRequestResponse
 .text.HALSMDivApprovalRsp
                0x00051968        0x8 depend_Debug_CSR102x_A06\cm_hal.o
                0x00051968                HALSMDivApprovalRsp
 .text.HALConnectionParamUpdateReq
                0x00051970       0x1c depend_Debug_CSR102x_A06\cm_hal.o
                0x00051970                HALConnectionParamUpdateReq
 .text.HALConnectionUpdateSignallingRsp
                0x0005198c        0xf depend_Debug_CSR102x_A06\cm_hal.o
                0x0005198c                HALConnectionUpdateSignallingRsp
 .text.HALParseConnectionUpdateInd
                0x0005199b       0x10 depend_Debug_CSR102x_A06\cm_hal.o
                0x0005199b                HALParseConnectionUpdateInd
 .text.HALMatchBluetoothAddress
                0x000519ab       0x34 depend_Debug_CSR102x_A06\cm_hal.o
                0x000519ab                HALMatchBluetoothAddress
 .text.CMProcessMsg
                0x000519df        0x8 depend_Debug_CSR102x_A06\cm_hal.o
                0x000519df                CMProcessMsg
 .text.addNewDevice
                0x000519e7       0x31 depend_Debug_CSR102x_A06\cm_private.o
 .text.getDeviceFromBdAddr
                0x00051a18       0x2a depend_Debug_CSR102x_A06\cm_private.o
 .text.setConnInfo
                0x00051a42       0x1c depend_Debug_CSR102x_A06\cm_private.o
 .text.handleSignalLmEvConnectionComplete
                0x00051a5e       0x33 depend_Debug_CSR102x_A06\cm_private.o
 .text.handleSignalGattConnectCfm
                0x00051a91       0x2c depend_Debug_CSR102x_A06\cm_private.o
 .text.handleSignalLmDisconnectComplete
                0x00051abd       0x43 depend_Debug_CSR102x_A06\cm_private.o
 .text.handleSignalLsRadioEventInd
                0x00051b00       0x14 depend_Debug_CSR102x_A06\cm_private.o
 .text.handleSignaNumberOfCompletedPacketsEventInd
                0x00051b14       0x16 depend_Debug_CSR102x_A06\cm_private.o
 .text.handleSignalLsEarlyWakeUpInd
                0x00051b2a       0x10 depend_Debug_CSR102x_A06\cm_private.o
 .text.handleSignalLsDataRxTimingInd
                0x00051b3a       0x29 depend_Debug_CSR102x_A06\cm_private.o
 .text.handleSignalLsConnUpdateSignallingInd
                0x00051b63       0x1b depend_Debug_CSR102x_A06\cm_private.o
 .text.handleSignalLsConnParamUpdateInd
                0x00051b7e       0x25 depend_Debug_CSR102x_A06\cm_private.o
 .text.handleSignalLsConnParamUpdateCfm
                0x00051ba3       0x1c depend_Debug_CSR102x_A06\cm_private.o
 .text.handleSignalLsConnectionUpdate
                0x00051bbf       0x1e depend_Debug_CSR102x_A06\cm_private.o
 .text.handleSignalGattExchangeMtuInd
                0x00051bdd        0x8 depend_Debug_CSR102x_A06\cm_private.o
 .text.CMGetMainData
                0x00051be5        0x3 depend_Debug_CSR102x_A06\cm_private.o
                0x00051be5                CMGetMainData
 .text.CMNotifyEventToApplication
                0x00051be8       0x16 depend_Debug_CSR102x_A06\cm_private.o
                0x00051be8                CMNotifyEventToApplication
 .text.CMPrivateInit
                0x00051bfe       0x37 depend_Debug_CSR102x_A06\cm_private.o
                0x00051bfe                CMPrivateInit
 .text.CMSetConnParam
                0x00051c35       0x1b depend_Debug_CSR102x_A06\cm_private.o
                0x00051c35                CMSetConnParam
 .text.CMResetDevConnParam
                0x00051c50       0x2a depend_Debug_CSR102x_A06\cm_private.o
                0x00051c50                CMResetDevConnParam
 .text.CMGetDeviceId
                0x00051c7a        0xb depend_Debug_CSR102x_A06\cm_private.o
                0x00051c7a                CMGetDeviceId
 .text.CMIsDeviceIdValid
                0x00051c85        0xc depend_Debug_CSR102x_A06\cm_private.o
                0x00051c85                CMIsDeviceIdValid
 .text.CMGetConnId
                0x00051c91       0x16 depend_Debug_CSR102x_A06\cm_private.o
                0x00051c91                CMGetConnId
 .text.CMSetDevState
                0x00051ca7       0x44 depend_Debug_CSR102x_A06\cm_private.o
                0x00051ca7                CMSetDevState
 .text.CMSetDeviceBondState
                0x00051ceb       0x11 depend_Debug_CSR102x_A06\cm_private.o
                0x00051ceb                CMSetDeviceBondState
 .text.CMSetDeviceEncryptState
                0x00051cfc       0x18 depend_Debug_CSR102x_A06\cm_private.o
                0x00051cfc                CMSetDeviceEncryptState
 .text.CMReportPanic
                0x00051d14        0x7 depend_Debug_CSR102x_A06\cm_private.o
                0x00051d14                CMReportPanic
 .text.CMProcessEvent
                0x00051d1b      0x151 depend_Debug_CSR102x_A06\cm_private.o
                0x00051d1b                CMProcessEvent
 .text.getFreeIndex
                0x00051e6c       0x27 depend_Debug_CSR102x_A06\cm_security.o
 .text.storeBondedDeviceInfo
                0x00051e93       0x47 depend_Debug_CSR102x_A06\cm_security.o
 .text.readBondingInfoFromNVM
                0x00051eda       0x6e depend_Debug_CSR102x_A06\cm_security.o
 .text.handleSignalSmKeysInd
                0x00051f48       0x33 depend_Debug_CSR102x_A06\cm_security.o
 .text.handleSignalSMLongTermKeyInd
                0x00051f7b       0x69 depend_Debug_CSR102x_A06\cm_security.o
 .text.handleSignalSmSimplePairingCompleteInd
                0x00051fe4       0x52 depend_Debug_CSR102x_A06\cm_security.o
 .text.handleSignalSmDivApproveInd
                0x00052036       0x36 depend_Debug_CSR102x_A06\cm_security.o
 .text.handleSignalSmPairingAuthInd
                0x0005206c       0x11 depend_Debug_CSR102x_A06\cm_security.o
 .text.handleSignalLMEncryptionChange
                0x0005207d       0x34 depend_Debug_CSR102x_A06\cm_security.o
 .text.handleSignalSmPasskeyInputInd
                0x000520b1       0x1c depend_Debug_CSR102x_A06\cm_security.o
 .text.handleSignalSmkeyRequestInd
                0x000520cd       0x2c depend_Debug_CSR102x_A06\cm_security.o
 .text.CMSecurityInit
                0x000520f9       0x2d depend_Debug_CSR102x_A06\cm_security.o
                0x000520f9                CMSecurityInit
 .text.CMIsDeviceBonded
                0x00052126       0x4e depend_Debug_CSR102x_A06\cm_security.o
                0x00052126                CMIsDeviceBonded
 .text.CMGetBondId
                0x00052174       0x4e depend_Debug_CSR102x_A06\cm_security.o
                0x00052174                CMGetBondId
 .text.CMGetBondedBDAddr
                0x000521c2       0x21 depend_Debug_CSR102x_A06\cm_security.o
                0x000521c2                CMGetBondedBDAddr
 .text.ClearBondingInfo
                0x000521e3       0x57 depend_Debug_CSR102x_A06\cm_security.o
                0x000521e3                ClearBondingInfo
 .text.CMSecurityHandleProcessLMEvent
                0x0005223a       0x63 depend_Debug_CSR102x_A06\cm_security.o
                0x0005223a                CMSecurityHandleProcessLMEvent
 .text.handleSignalGattAddDbCfm
                0x0005229d       0x11 depend_Debug_CSR102x_A06\cm_server.o
 .text.handleGattCharValNotificationCfm
                0x000522ae       0x1d depend_Debug_CSR102x_A06\cm_server.o
 .text.handleGattCharValIndicationCfm
                0x000522cb       0x1d depend_Debug_CSR102x_A06\cm_server.o
 .text.handleSignalGattAccessInd
                0x000522e8       0x6e depend_Debug_CSR102x_A06\cm_server.o
 .text.CMServerInit
                0x00052356       0x25 depend_Debug_CSR102x_A06\cm_server.o
                0x00052356                CMServerInit
 .text.CMServerInitRegisterHandler
                0x0005237b       0x2d depend_Debug_CSR102x_A06\cm_server.o
                0x0005237b                CMServerInitRegisterHandler
 .text.CMServerGetHandler
                0x000523a8       0x2a depend_Debug_CSR102x_A06\cm_server.o
                0x000523a8                CMServerGetHandler
 .text.CMServerNotifyGenericEvent
                0x000523d2       0x2f depend_Debug_CSR102x_A06\cm_server.o
                0x000523d2                CMServerNotifyGenericEvent
 .text.CMServerNotifyGattEvent
                0x00052401       0x1a depend_Debug_CSR102x_A06\cm_server.o
                0x00052401                CMServerNotifyGattEvent
 .text.CMSendAccessRsp
                0x0005241b       0x1c depend_Debug_CSR102x_A06\cm_server.o
                0x0005241b                CMSendAccessRsp
 .text.CMSendValueNotificationExt
                0x00052437        0x6 depend_Debug_CSR102x_A06\cm_server.o
                0x00052437                CMSendValueNotificationExt
 .text.CMSendValueNotification
                0x0005243d        0x7 depend_Debug_CSR102x_A06\cm_server.o
                0x0005243d                CMSendValueNotification
 .text.CMServerHandleProcessLMEvent
                0x00052444       0x34 depend_Debug_CSR102x_A06\cm_server.o
                0x00052444                CMServerHandleProcessLMEvent
 .text.CMObserverInit
                0x00052478        0x4 depend_Debug_CSR102x_A06\cm_observer.o
                0x00052478                CMObserverInit
 .text.CMObserverEnableRawReports
                0x0005247c        0x6 depend_Debug_CSR102x_A06\cm_observer.o
                0x0005247c                CMObserverEnableRawReports
 .text.CMObserverHandleProcessLMEvent
                0x00052482       0x25 depend_Debug_CSR102x_A06\cm_observer.o
                0x00052482                CMObserverHandleProcessLMEvent
 .text.advertisingExit
                0x000524a7       0x13 depend_Debug_CSR102x_A06\cm_peripheral.o
 .text.addDeviceNameToAdvData
                0x000524ba       0x4a depend_Debug_CSR102x_A06\cm_peripheral.o
 .text.addDeviceNameToScanRspData
                0x00052504       0x2a depend_Debug_CSR102x_A06\cm_peripheral.o
 .text.gattAdvertTimerHandler
                0x0005252e       0x24 depend_Debug_CSR102x_A06\cm_peripheral.o
 .text.addAdvScanData
                0x00052552       0x8a depend_Debug_CSR102x_A06\cm_peripheral.o
 .text.startAdvertisements
                0x000525dc      0x12e depend_Debug_CSR102x_A06\cm_peripheral.o
 .text.handleSignalGattConnectCfm
                0x0005270a        0xe depend_Debug_CSR102x_A06\cm_peripheral.o
 .text.handleSignalLsCancelConnectCfm
                0x00052718       0x27 depend_Debug_CSR102x_A06\cm_peripheral.o
 .text.CMPeripheralInit
                0x0005273f        0xa depend_Debug_CSR102x_A06\cm_peripheral.o
                0x0005273f                CMPeripheralInit
 .text.CMSetAdvState
                0x00052749       0x24 depend_Debug_CSR102x_A06\cm_peripheral.o
                0x00052749                CMSetAdvState
 .text.CMGetAdvState
                0x0005276d        0x3 depend_Debug_CSR102x_A06\cm_peripheral.o
                0x0005276d                CMGetAdvState
 .text.CMPeripheralDirectAdvTimeout
                0x00052770       0x17 depend_Debug_CSR102x_A06\cm_peripheral.o
                0x00052770                CMPeripheralDirectAdvTimeout
 .text.CMIsAdvertising
                0x00052787        0xc depend_Debug_CSR102x_A06\cm_peripheral.o
                0x00052787                CMIsAdvertising
 .text.CMPeripheralHandleProcessLmEvent
                0x00052793       0x1a depend_Debug_CSR102x_A06\cm_peripheral.o
                0x00052793                CMPeripheralHandleProcessLmEvent
 .text.connTimerHandler
                0x000527ad        0xc depend_Debug_CSR102x_A06\cm_central.o
 .text.interestedDevice
                0x000527b9      0x152 depend_Debug_CSR102x_A06\cm_central.o
 .text.handleSignalGattConnectCfm
                0x0005290b       0x14 depend_Debug_CSR102x_A06\cm_central.o
 .text.handleSignalLsCancelConnectCfm
                0x0005291f       0x12 depend_Debug_CSR102x_A06\cm_central.o
 .text.CMCentralInit
                0x00052931        0xa depend_Debug_CSR102x_A06\cm_central.o
                0x00052931                CMCentralInit
 .text.CMSetScanState
                0x0005293b       0x15 depend_Debug_CSR102x_A06\cm_central.o
                0x0005293b                CMSetScanState
 .text.CMGetScanState
                0x00052950        0x3 depend_Debug_CSR102x_A06\cm_central.o
                0x00052950                CMGetScanState
 .text.CMSetConnState
                0x00052953       0x15 depend_Debug_CSR102x_A06\cm_central.o
                0x00052953                CMSetConnState
 .text.CMGetConnState
                0x00052968        0x3 depend_Debug_CSR102x_A06\cm_central.o
                0x00052968                CMGetConnState
 .text.CMCentralStopScanning
                0x0005296b       0x1a depend_Debug_CSR102x_A06\cm_central.o
                0x0005296b                CMCentralStopScanning
 .text.CMCentralConnect
                0x00052985       0x42 depend_Debug_CSR102x_A06\cm_central.o
                0x00052985                CMCentralConnect
 .text.CMCentralCancelConnect
                0x000529c7       0x10 depend_Debug_CSR102x_A06\cm_central.o
                0x000529c7                CMCentralCancelConnect
 .text.CMCentralHandleProcessLMEvent
                0x000529d7       0x44 depend_Debug_CSR102x_A06\cm_central.o
                0x000529d7                CMCentralHandleProcessLMEvent
 .text.notifyDiscoveryComplete
                0x00052a1b       0x53 depend_Debug_CSR102x_A06\cm_client.o
 .text.getInstanceAndHandler
                0x00052a6e       0x5c depend_Debug_CSR102x_A06\cm_client.o
 .text.instanceFree
                0x00052aca       0x22 depend_Debug_CSR102x_A06\cm_client.o
 .text.continueDiscovery
                0x00052aec       0x59 depend_Debug_CSR102x_A06\cm_client.o
 .text.moreCharDiscriptors
                0x00052b45       0x27 depend_Debug_CSR102x_A06\cm_client.o
 .text.moreCharacteristics
                0x00052b6c       0x49 depend_Debug_CSR102x_A06\cm_client.o
 .text.discoveryComplete
                0x00052bb5        0xb depend_Debug_CSR102x_A06\cm_client.o
 .text.discoverAllPrimaryServices
                0x00052bc0        0x7 depend_Debug_CSR102x_A06\cm_client.o
 .text.discoverServiceChar
                0x00052bc7       0x12 depend_Debug_CSR102x_A06\cm_client.o
 .text.discoverCharacteristicDesc
                0x00052bd9       0x1e depend_Debug_CSR102x_A06\cm_client.o
 .text.handleGenericDiscoverServiceInd
                0x00052bf7       0x82 depend_Debug_CSR102x_A06\cm_client.o
 .text.handleGenericServiceDiscoverAllPrimaryServiceCfm
                0x00052c79       0x68 depend_Debug_CSR102x_A06\cm_client.o
 .text.handleGenericGattServiceCharacteristicDeclarationInfoInd
                0x00052ce1       0x51 depend_Debug_CSR102x_A06\cm_client.o
 .text.handleGenericGattDiscoverServiceCharacteristicCfm
                0x00052d32       0x26 depend_Debug_CSR102x_A06\cm_client.o
 .text.handleGenericGattCharacteristicDescriptorInfoInd
                0x00052d58       0x40 depend_Debug_CSR102x_A06\cm_client.o
 .text.handleGenericGattCharacteristicDescriptorCfm
                0x00052d98       0x23 depend_Debug_CSR102x_A06\cm_client.o
 .text.handleSignalWriteCharValCfm
                0x00052dbb       0x2f depend_Debug_CSR102x_A06\cm_client.o
 .text.handleSignalReadCharValCfm
                0x00052dea       0x31 depend_Debug_CSR102x_A06\cm_client.o
 .text.handleSignalNotificationCharValInd
                0x00052e1b       0x2b depend_Debug_CSR102x_A06\cm_client.o
 .text.handleSignalIndicationCharValInd
                0x00052e46       0x2a depend_Debug_CSR102x_A06\cm_client.o
 .text.CMClientInit
                0x00052e70       0x17 depend_Debug_CSR102x_A06\cm_client.o
                0x00052e70                CMClientInit
 .text.CMClientInitRegisterHandler
                0x00052e87       0x1f depend_Debug_CSR102x_A06\cm_client.o
                0x00052e87                CMClientInitRegisterHandler
 .text.CMClientNotifyGenericEvent
                0x00052ea6       0x34 depend_Debug_CSR102x_A06\cm_client.o
                0x00052ea6                CMClientNotifyGenericEvent
 .text.CMClientNotifyGattEvent
                0x00052eda       0x1a depend_Debug_CSR102x_A06\cm_client.o
                0x00052eda                CMClientNotifyGattEvent
 .text.CMClientWriteRequest
                0x00052ef4       0x25 depend_Debug_CSR102x_A06\cm_client.o
                0x00052ef4                CMClientWriteRequest
 .text.CMClientStartDiscovery
                0x00052f19       0x1b depend_Debug_CSR102x_A06\cm_client.o
                0x00052f19                CMClientStartDiscovery
 .text.CMClientFindDevice
                0x00052f34       0x20 depend_Debug_CSR102x_A06\cm_client.o
                0x00052f34                CMClientFindDevice
 .text.CMClientCheckHandleRange
                0x00052f54       0x13 depend_Debug_CSR102x_A06\cm_client.o
                0x00052f54                CMClientCheckHandleRange
 .text.CMClientHandleProcessLMEvent
                0x00052f67       0x4d depend_Debug_CSR102x_A06\cm_client.o
                0x00052f67                CMClientHandleProcessLMEvent
 .text.ReadBatteryLevel
                0x00052fb4       0x6d depend_Debug_CSR102x_A06\battery_hw.o
                0x00052fb4                ReadBatteryLevel
 .text.SendLowBatteryIndication
                0x00053021        0x8 depend_Debug_CSR102x_A06\battery_hw.o
                0x00053021                SendLowBatteryIndication
 .text.setPioMask
                0x00053029       0x37 depend_Debug_CSR102x_A06\iot_hw.o
                0x00053029                setPioMask
 .text.IOTSwitchInit
                0x00053060       0x74 depend_Debug_CSR102x_A06\iot_hw.o
                0x00053060                IOTSwitchInit
 .text.GetIOTSwitchMask
                0x000530d4       0x18 depend_Debug_CSR102x_A06\iot_hw.o
                0x000530d4                GetIOTSwitchMask
 .text.getPsKeyOffset
                0x000530ec       0x1b depend_Debug_CSR102x_A06\csr_mesh_ps_ifce.o
 .text.CSRmeshPsInit
                0x00053107        0x2 depend_Debug_CSR102x_A06\csr_mesh_ps_ifce.o
                0x00053107                CSRmeshPsInit
 .text.CSRmeshIsPsReadyForAccess
                0x00053109       0x1f depend_Debug_CSR102x_A06\csr_mesh_ps_ifce.o
                0x00053109                CSRmeshIsPsReadyForAccess
 .text.CSRmeshPsReadSecureKey
                0x00053128        0x4 depend_Debug_CSR102x_A06\csr_mesh_ps_ifce.o
                0x00053128                CSRmeshPsReadSecureKey
 .text.CSRmeshPsRead
                0x0005312c        0xc depend_Debug_CSR102x_A06\csr_mesh_ps_ifce.o
                0x0005312c                CSRmeshPsRead
 .text.CSRmeshPsSecureRead
                0x00053138        0xc depend_Debug_CSR102x_A06\csr_mesh_ps_ifce.o
                0x00053138                CSRmeshPsSecureRead
 .text.CSRmeshPsWrite
                0x00053144        0xc depend_Debug_CSR102x_A06\csr_mesh_ps_ifce.o
                0x00053144                CSRmeshPsWrite
 .text.CSRmeshPsWriteWithOffset
                0x00053150        0xd depend_Debug_CSR102x_A06\csr_mesh_ps_ifce.o
                0x00053150                CSRmeshPsWriteWithOffset
 .text.CSRmeshPsSecureWrite
                0x0005315d        0xc depend_Debug_CSR102x_A06\csr_mesh_ps_ifce.o
                0x0005315d                CSRmeshPsSecureWrite
 .text.attnTimerHandler
                0x00053169        0xa depend_Debug_CSR102x_A06\core_mesh_handler.o
 .text.appProcessMeshEvent
                0x00053173      0x17f depend_Debug_CSR102x_A06\core_mesh_handler.o
 .text.deviceIdAdvertTimeoutHandler
                0x000532f2       0x5f depend_Debug_CSR102x_A06\core_mesh_handler.o
 .text.InitiateAssociation
                0x00053351       0x23 depend_Debug_CSR102x_A06\core_mesh_handler.o
                0x00053351                InitiateAssociation
 .text.AppUpdateBearerState
                0x00053374       0x13 depend_Debug_CSR102x_A06\core_mesh_handler.o
                0x00053374                AppUpdateBearerState
 .text.AppGetAssociatedState
                0x00053387        0x5 depend_Debug_CSR102x_A06\core_mesh_handler.o
                0x00053387                AppGetAssociatedState
 .text.IsGattBearerEnabled
                0x0005338c        0x6 depend_Debug_CSR102x_A06\core_mesh_handler.o
                0x0005338c                IsGattBearerEnabled
 .text.AppGetStoredBearerState
                0x00053392        0xb depend_Debug_CSR102x_A06\core_mesh_handler.o
                0x00053392                AppGetStoredBearerState
 .text.MeshHandlerInit
                0x0005339d        0xb depend_Debug_CSR102x_A06\core_mesh_handler.o
                0x0005339d                MeshHandlerInit
 .text.AppGetCurrentTTL
                0x000533a8        0x5 depend_Debug_CSR102x_A06\core_mesh_handler.o
                0x000533a8                AppGetCurrentTTL
 .text.AppSetTxPower
                0x000533ad       0x33 depend_Debug_CSR102x_A06\core_mesh_handler.o
                0x000533ad                AppSetTxPower
 .text.AppInitializeSeqCache
                0x000533e0        0x3 depend_Debug_CSR102x_A06\core_mesh_handler.o
                0x000533e0                AppInitializeSeqCache
 .text.AppClearSeqCache
                0x000533e3        0x4 depend_Debug_CSR102x_A06\core_mesh_handler.o
                0x000533e3                AppClearSeqCache
 .text.ReportPanic
                0x000533e7        0x7 depend_Debug_CSR102x_A06\app_util.o
                0x000533e7                ReportPanic
 .text.getCmInitParams
                0x000533ee       0x33 depend_Debug_CSR102x_A06\connection_handler.o
 .text.handleCmInitCfm
                0x00053421       0x11 depend_Debug_CSR102x_A06\connection_handler.o
 .text.connTimeoutHandler
                0x00053432       0x18 depend_Debug_CSR102x_A06\connection_handler.o
 .text.handleConnNotify
                0x0005344a       0xe3 depend_Debug_CSR102x_A06\connection_handler.o
 .text.handleBondNotify
                0x0005352d        0xe depend_Debug_CSR102x_A06\connection_handler.o
 .text.handleEncryptionChangeNotify
                0x0005353b        0xb depend_Debug_CSR102x_A06\connection_handler.o
 .text.handleCmConnectionUpdated
                0x00053546       0x3f depend_Debug_CSR102x_A06\connection_handler.o
 .text.handleCmAdvReport
                0x00053585        0x9 depend_Debug_CSR102x_A06\connection_handler.o
 .text.startDiscoveryTimeout
                0x0005358e        0xe depend_Debug_CSR102x_A06\connection_handler.o
 .text.startGattDiscovery
                0x0005359c       0x1e depend_Debug_CSR102x_A06\connection_handler.o
 .text.handleDiscoveryComplete
                0x000535ba       0x2d depend_Debug_CSR102x_A06\connection_handler.o
 .text.handleCmRawAdvReportInd
                0x000535e7       0x5e depend_Debug_CSR102x_A06\connection_handler.o
 .text.appHandleConnMgrProcEvent
                0x00053645       0x46 depend_Debug_CSR102x_A06\connection_handler.o
 .text.AppCMInit
                0x0005368b        0xf depend_Debug_CSR102x_A06\connection_handler.o
                0x0005368b                AppCMInit
 .text.InitialiseGattData
                0x0005369a       0x22 depend_Debug_CSR102x_A06\connection_handler.o
                0x0005369a                InitialiseGattData
 .text.GetConnectedDeviceId
                0x000536bc        0x3 depend_Debug_CSR102x_A06\connection_handler.o
                0x000536bc                GetConnectedDeviceId
 .text.AppSetState
                0x000536bf       0x2f depend_Debug_CSR102x_A06\connection_handler.o
                0x000536bf                AppSetState
 .text.AppRequestConnParamUpdate
                0x000536ee       0x40 depend_Debug_CSR102x_A06\connection_handler.o
                0x000536ee                AppRequestConnParamUpdate
 .text.GaiaOtauInProgress
                0x0005372e       0x1e depend_Debug_CSR102x_A06\connection_handler.o
                0x0005372e                GaiaOtauInProgress
 .text.IsGaiaOtauInProgress
                0x0005374c        0x3 depend_Debug_CSR102x_A06\connection_handler.o
                0x0005374c                IsGaiaOtauInProgress
 .text.GaiaOtauUpgradedApplication
                0x0005374f        0x6 depend_Debug_CSR102x_A06\connection_handler.o
                0x0005374f                GaiaOtauUpgradedApplication
 .text.IsGaiaOtauUpgradedApplication
                0x00053755        0x3 depend_Debug_CSR102x_A06\connection_handler.o
                0x00053755                IsGaiaOtauUpgradedApplication
 .text.GetConnInterval
                0x00053758        0x3 depend_Debug_CSR102x_A06\connection_handler.o
                0x00053758                GetConnInterval
 .text.AppConfigureNextService
                0x0005375b       0x19 depend_Debug_CSR102x_A06\connection_handler.o
                0x0005375b                AppConfigureNextService
 .text.SendConnectRequest
                0x00053774       0x12 depend_Debug_CSR102x_A06\connection_handler.o
                0x00053774                SendConnectRequest
 .text.AppSendConnectRequest
                0x00053786       0x2f depend_Debug_CSR102x_A06\connection_handler.o
                0x00053786                AppSendConnectRequest
 .text.AppGetLastConnectedAddress
                0x000537b5        0xa depend_Debug_CSR102x_A06\connection_handler.o
                0x000537b5                AppGetLastConnectedAddress
 .text.getSupported16BitUUIDServiceList
                0x000537bf       0x23 depend_Debug_CSR102x_A06\advertisement_handler.o
 .text.csrStoreUserAdvData
                0x000537e2       0x48 depend_Debug_CSR102x_A06\advertisement_handler.o
 .text.addDeviceNameToAdvData
                0x0005382a       0x57 depend_Debug_CSR102x_A06\advertisement_handler.o
 .text.gattSetAdvertData
                0x00053881       0x5d depend_Debug_CSR102x_A06\advertisement_handler.o
 .text.gattAdvertTimerHandler
                0x000538de        0xc depend_Debug_CSR102x_A06\advertisement_handler.o
 .text.GattTriggerConnectableAdverts
                0x000538ea       0xb3 depend_Debug_CSR102x_A06\advertisement_handler.o
                0x000538ea                GattTriggerConnectableAdverts
 .text.GattStopAdverts
                0x0005399d        0xa depend_Debug_CSR102x_A06\advertisement_handler.o
                0x0005399d                GattStopAdverts
 .text.handleConnParamUpdateCallback
                0x000539a7        0xd depend_Debug_CSR102x_A06\app_otau_handler.o
 .text.otauCallbackUpdateStarting
                0x000539b4       0x35 depend_Debug_CSR102x_A06\app_otau_handler.o
 .text.updateStoreType
                0x000539e9       0x18 depend_Debug_CSR102x_A06\app_otau_handler.o
 .text.otauCallbackValidateHeaderID
                0x00053a01       0x1c depend_Debug_CSR102x_A06\app_otau_handler.o
 .text.otauCallbackValidateHeaderBody
                0x00053a1d      0x135 depend_Debug_CSR102x_A06\app_otau_handler.o
 .text.otauCallbackHandlePartitionInfo
                0x00053b52       0x15 depend_Debug_CSR102x_A06\app_otau_handler.o
 .text.appHandleGaiaOtauEvent
                0x00053b67       0x3a depend_Debug_CSR102x_A06\app_otau_handler.o
 .text.appHandleGaiaEvent
                0x00053ba1       0x1d depend_Debug_CSR102x_A06\app_otau_handler.o
 .text.AppGaiaOtauInit
                0x00053bbe        0xf depend_Debug_CSR102x_A06\app_otau_handler.o
                0x00053bbe                AppGaiaOtauInit
 .text.AppGaiaOtauDataInit
                0x00053bcd        0xe depend_Debug_CSR102x_A06\app_otau_handler.o
                0x00053bcd                AppGaiaOtauDataInit
 .text.StopScanning
                0x00053bdb       0x10 depend_Debug_CSR102x_A06\scan_handler.o
                0x00053bdb                StopScanning
 .text.resetOtauTransferStateData
                0x00053beb       0x16 depend_Debug_CSR102x_A06\app_otau_client_handler.o
 .text.readDataFromNVM
                0x00053c01      0x110 depend_Debug_CSR102x_A06\app_otau_client_handler.o
 .text.updatePreviousStore
                0x00053d11       0x48 depend_Debug_CSR102x_A06\app_otau_client_handler.o
 .text.startSHA256sum
                0x00053d59       0x3e depend_Debug_CSR102x_A06\app_otau_client_handler.o
 .text.setCalculateHashStatus
                0x00053d97        0xf depend_Debug_CSR102x_A06\app_otau_client_handler.o
 .text.startUpgradeTimerExpiry
                0x00053da6       0x12 depend_Debug_CSR102x_A06\app_otau_client_handler.o
 .text.gaiaClientDataTransferEvent
                0x00053db8      0x1b5 depend_Debug_CSR102x_A06\app_otau_client_handler.o
 .text.gaiaClientConnNotifyEvent
                0x00053f6d       0x24 depend_Debug_CSR102x_A06\app_otau_client_handler.o
 .text.appHandleGaiaOtauClientEvent
                0x00053f91       0x58 depend_Debug_CSR102x_A06\app_otau_client_handler.o
 .text.handleAnnounceTimerExpiry
                0x00053fe9        0x9 depend_Debug_CSR102x_A06\app_otau_client_handler.o
 .text.AppOtauClientInit
                0x00053ff2        0x7 depend_Debug_CSR102x_A06\app_otau_client_handler.o
                0x00053ff2                AppOtauClientInit
 .text.GaiaAppClientInit
                0x00053ff9       0xd6 depend_Debug_CSR102x_A06\app_otau_client_handler.o
                0x00053ff9                GaiaAppClientInit
 .text.StoreHeaderDataToNVM
                0x000540cf       0x14 depend_Debug_CSR102x_A06\app_otau_client_handler.o
                0x000540cf                StoreHeaderDataToNVM
 .text.StorePartitionDataToNVM
                0x000540e3       0x30 depend_Debug_CSR102x_A06\app_otau_client_handler.o
                0x000540e3                StorePartitionDataToNVM
 .text.StoreRelayStoreInfo
                0x00054113       0x2e depend_Debug_CSR102x_A06\app_otau_client_handler.o
                0x00054113                StoreRelayStoreInfo
 .text.StorePartitionSignatureToNVM
                0x00054141       0x28 depend_Debug_CSR102x_A06\app_otau_client_handler.o
                0x00054141                StorePartitionSignatureToNVM
 .text.GaiaOtauSetCommitStatus
                0x00054169        0xf depend_Debug_CSR102x_A06\app_otau_client_handler.o
                0x00054169                GaiaOtauSetCommitStatus
 .text.GaiaOtauSetRelayStore
                0x00054178       0x7c depend_Debug_CSR102x_A06\app_otau_client_handler.o
                0x00054178                GaiaOtauSetRelayStore
 .text.SendLOTAnnouncePacket
                0x000541f4       0xb9 depend_Debug_CSR102x_A06\app_otau_client_handler.o
                0x000541f4                SendLOTAnnouncePacket
 .text.GaiaOtauClientConfigStoreMsg
                0x000542ad       0x23 depend_Debug_CSR102x_A06\app_otau_client_handler.o
                0x000542ad                GaiaOtauClientConfigStoreMsg
 .text.GaiaOtauClientHandleStoreUpdateMsg
                0x000542d0       0x89 depend_Debug_CSR102x_A06\app_otau_client_handler.o
                0x000542d0                GaiaOtauClientHandleStoreUpdateMsg
 .text.extendedMsgHandler
                0x00054359       0xdd depend_Debug_CSR102x_A06\extension_model_handler.o
 .text.extensionModelEventHandler
                0x00054436        0xd depend_Debug_CSR102x_A06\extension_model_handler.o
 .text.ExtensionModelHandlerInit
                0x00054443       0x21 depend_Debug_CSR102x_A06\extension_model_handler.o
                0x00054443                ExtensionModelHandlerInit
 .text.ExtensionModelDataInit
                0x00054464        0xa depend_Debug_CSR102x_A06\extension_model_handler.o
                0x00054464                ExtensionModelDataInit
 .text.ProcessRxData
                0x0005446e      0x15e depend_Debug_CSR102x_A06\extension_model_handler.o
                0x0005446e                ProcessRxData
 .text.serviceDataInit
                0x000545cc       0x1f depend_Debug_CSR102x_A06\gap_service.o
 .text.updateDeviceName
                0x000545eb       0x21 depend_Debug_CSR102x_A06\gap_service.o
 .text.writeDeviceNameToNvm
                0x0005460c       0x14 depend_Debug_CSR102x_A06\gap_service.o
 .text.handleAccessRead
                0x00054620       0x39 depend_Debug_CSR102x_A06\gap_service.o
 .text.handleAccessWrite
                0x00054659       0x22 depend_Debug_CSR102x_A06\gap_service.o
 .text.handleConnMgrProcedureEvent
                0x0005467b       0x12 depend_Debug_CSR102x_A06\gap_service.o
 .text.GapGetNameAndLength
                0x0005468d        0xc depend_Debug_CSR102x_A06\gap_service.o
                0x0005468d                GapGetNameAndLength
 .text.GapInitServerServiceNoBond
                0x00054699       0x16 depend_Debug_CSR102x_A06\gap_service.o
                0x00054699                GapInitServerServiceNoBond
 .text.writeToNvm
                0x000546af       0x1c depend_Debug_CSR102x_A06\gatt_service.o
 .text.readDataFromNVM
                0x000546cb       0x34 depend_Debug_CSR102x_A06\gatt_service.o
 .text.handleConnNotify
                0x000546ff        0xf depend_Debug_CSR102x_A06\gatt_service.o
 .text.handleBondNotify
                0x0005470e       0x1e depend_Debug_CSR102x_A06\gatt_service.o
 .text.handleAccessRead
                0x0005472c       0x31 depend_Debug_CSR102x_A06\gatt_service.o
 .text.handleAccessWrite
                0x0005475d       0x42 depend_Debug_CSR102x_A06\gatt_service.o
 .text.handleConnMgrProcedureEvent
                0x0005479f       0x25 depend_Debug_CSR102x_A06\gatt_service.o
 .text.GattExtInitServerService
                0x000547c4       0x29 depend_Debug_CSR102x_A06\gatt_service.o
                0x000547c4                GattExtInitServerService
 .text.MeshControlServiceDataInit
                0x000547ed        0x7 depend_Debug_CSR102x_A06\mesh_control_service.o
                0x000547ed                MeshControlServiceDataInit
 .text.handleAccessRead
                0x000547f4       0x50 depend_Debug_CSR102x_A06\mesh_control_service.o
 .text.handleAccessWrite
                0x00054844       0xcc depend_Debug_CSR102x_A06\mesh_control_service.o
 .text.handleConnMgrProcedureEvent
                0x00054910       0x1a depend_Debug_CSR102x_A06\mesh_control_service.o
 .text.MeshControlInitServerService
                0x0005492a       0x16 depend_Debug_CSR102x_A06\mesh_control_service.o
                0x0005492a                MeshControlInitServerService
 .text.MeshControlNotifyResponse
                0x00054940       0x33 depend_Debug_CSR102x_A06\mesh_control_service.o
                0x00054940                MeshControlNotifyResponse
 .text.SetUint8InArray
                0x00054973        0xa depend_Debug_CSR102x_A06\byte_utils.o
                0x00054973                SetUint8InArray
 .text.SetUint16InArray
                0x0005497d       0x15 depend_Debug_CSR102x_A06\byte_utils.o
                0x0005497d                SetUint16InArray
 .text.SetUint32InArray
                0x00054992       0x2b depend_Debug_CSR102x_A06\byte_utils.o
                0x00054992                SetUint32InArray
 .text.GetUint8FromArray
                0x000549bd        0x5 depend_Debug_CSR102x_A06\byte_utils.o
                0x000549bd                GetUint8FromArray
 .text.GetUint16FromArray
                0x000549c2       0x11 depend_Debug_CSR102x_A06\byte_utils.o
                0x000549c2                GetUint16FromArray
 .text.GetUint32FromArray
                0x000549d3       0x5b depend_Debug_CSR102x_A06\byte_utils.o
                0x000549d3                GetUint32FromArray
 .text.SwapBytes
                0x00054a2e       0x2a depend_Debug_CSR102x_A06\byte_utils.o
                0x00054a2e                SwapBytes
 .text.BufReadUint16BE
                0x00054a58       0x1b depend_Debug_CSR102x_A06\byte_utils.o
                0x00054a58                BufReadUint16BE
 .text.notifyApplication
                0x00054a73       0x1c depend_Debug_CSR102x_A06\gaia.o
 .text.gaiaHandleStatusCommandAck
                0x00054a8f        0x4 depend_Debug_CSR102x_A06\gaia.o
 .text.gaiaHandleControlCommand
                0x00054a93       0x11 depend_Debug_CSR102x_A06\gaia.o
 .text.gaiaHandleDataTransferCommand
                0x00054aa4       0xf1 depend_Debug_CSR102x_A06\gaia.o
 .text.gaiaHandleNotificationCommand
                0x00054b95       0x5d depend_Debug_CSR102x_A06\gaia.o
 .text.gaiaHandleNotificationCommandAck
                0x00054bf2       0x18 depend_Debug_CSR102x_A06\gaia.o
 .text.GaiaLibInit
                0x00054c0a        0xd depend_Debug_CSR102x_A06\gaia.o
                0x00054c0a                GaiaLibInit
 .text.GaiaLibHandleConnNotify
                0x00054c17        0x4 depend_Debug_CSR102x_A06\gaia.o
                0x00054c17                GaiaLibHandleConnNotify
 .text.GAIAProcessCommand
                0x00054c1b       0x77 depend_Debug_CSR102x_A06\gaia.o
                0x00054c1b                GAIAProcessCommand
 .text.GaiaSendPacket
                0x00054c92       0x4d depend_Debug_CSR102x_A06\gaia.o
                0x00054c92                GaiaSendPacket
 .text.GaiaRegisterCallback
                0x00054cdf        0xa depend_Debug_CSR102x_A06\gaia.o
                0x00054cdf                GaiaRegisterCallback
 .text.initStateVariables
                0x00054ce9       0x25 depend_Debug_CSR102x_A06\gaia_otau.o
 .text.setDefaultNVM
                0x00054d0e       0x1d depend_Debug_CSR102x_A06\gaia_otau.o
 .text.saveCurrentNVM
                0x00054d2b       0x14 depend_Debug_CSR102x_A06\gaia_otau.o
 .text.readDataFromNVM
                0x00054d3f       0x23 depend_Debug_CSR102x_A06\gaia_otau.o
 .text.notifyApplication
                0x00054d62       0x1c depend_Debug_CSR102x_A06\gaia_otau.o
 .text.notifyApplicationRebootWarning
                0x00054d7e        0xa depend_Debug_CSR102x_A06\gaia_otau.o
 .text.runNewApp
                0x00054d88       0x16 depend_Debug_CSR102x_A06\gaia_otau.o
 .text.isNewApp
                0x00054d9e        0xd depend_Debug_CSR102x_A06\gaia_otau.o
 .text.getAppStoreToUpgrade
                0x00054dab       0x1a depend_Debug_CSR102x_A06\gaia_otau.o
 .text.upgradeDeviceSendErrorInd
                0x00054dc5       0x48 depend_Debug_CSR102x_A06\gaia_otau.o
 .text.upgradeDeviceSendValidationCfm
                0x00054e0d       0x46 depend_Debug_CSR102x_A06\gaia_otau.o
 .text.upgradeDeviceSendTransferCompleteInd
                0x00054e53       0x36 depend_Debug_CSR102x_A06\gaia_otau.o
 .text.upgradeDeviceSendStartCfm
                0x00054e89       0x53 depend_Debug_CSR102x_A06\gaia_otau.o
 .text.upgradeDeviceSendDataBytesReq
                0x00054edc       0x5c depend_Debug_CSR102x_A06\gaia_otau.o
 .text.upgradeDeviceSendSyncCfm
                0x00054f38       0x64 depend_Debug_CSR102x_A06\gaia_otau.o
 .text.upgradeDeviceSendAbortCfm
                0x00054f9c       0x36 depend_Debug_CSR102x_A06\gaia_otau.o
 .text.upgradeDeviceSendUpdateCommitReq
                0x00054fd2       0x36 depend_Debug_CSR102x_A06\gaia_otau.o
 .text.upgradeDeviceSendUpdateCompleteInd
                0x00055008       0x36 depend_Debug_CSR102x_A06\gaia_otau.o
 .text.startSHA256sum
                0x0005503e       0x2f depend_Debug_CSR102x_A06\gaia_otau.o
 .text.storage_size_encode
                0x0005506d       0x70 depend_Debug_CSR102x_A06\gaia_otau.o
 .text.isPartitionHeader
                0x000550dd       0x16 depend_Debug_CSR102x_A06\gaia_otau.o
 .text.isFooterHeader
                0x000550f3       0x16 depend_Debug_CSR102x_A06\gaia_otau.o
 .text.handleOtauFileTransfer
                0x00055109      0x2e3 depend_Debug_CSR102x_A06\gaia_otau.o
 .text.hostCommitTimeoutHandler
                0x000553ec       0x18 depend_Debug_CSR102x_A06\gaia_otau.o
 .text.hostCommitTimeoutCreate
                0x00055404       0x1a depend_Debug_CSR102x_A06\gaia_otau.o
 .text.hostCommitTimeoutDelete
                0x0005541e        0xa depend_Debug_CSR102x_A06\gaia_otau.o
 .text.GaiaOtauInit
                0x00055428       0x2f depend_Debug_CSR102x_A06\gaia_otau.o
                0x00055428                GaiaOtauInit
 .text.GaiaOtauHandleConnNotify
                0x00055457       0x28 depend_Debug_CSR102x_A06\gaia_otau.o
                0x00055457                GaiaOtauHandleConnNotify
 .text.handleVmUpgradeHostSyncReq
                0x0005547f       0x49 depend_Debug_CSR102x_A06\gaia_otau.o
 .text.GaiaOtauHandleVmUpgradeControlCommand
                0x000554c8       0xdb depend_Debug_CSR102x_A06\gaia_otau.o
                0x000554c8                GaiaOtauHandleVmUpgradeControlCommand
 .text.GaiaOtauHandleStoreUpdateMsg
                0x000555a3       0xd4 depend_Debug_CSR102x_A06\gaia_otau.o
                0x000555a3                GaiaOtauHandleStoreUpdateMsg
 .text.GaiaOtauConfigStoreMsg
                0x00055677       0x24 depend_Debug_CSR102x_A06\gaia_otau.o
                0x00055677                GaiaOtauConfigStoreMsg
 .text.GaiaOtauRegisterCallback
                0x0005569b        0xa depend_Debug_CSR102x_A06\gaia_otau.o
                0x0005569b                GaiaOtauRegisterCallback
 .text.GaiaOtauContinueUpgrade
                0x000556a5       0x12 depend_Debug_CSR102x_A06\gaia_otau.o
                0x000556a5                GaiaOtauContinueUpgrade
 .text.readDataFromNVM
                0x000556b7       0x23 depend_Debug_CSR102x_A06\gaia_service.o
 .text.handleAccessRead
                0x000556da       0x25 depend_Debug_CSR102x_A06\gaia_service.o
 .text.handleAccessWrite
                0x000556ff       0x52 depend_Debug_CSR102x_A06\gaia_service.o
 .text.handleConnNotify
                0x00055751        0x9 depend_Debug_CSR102x_A06\gaia_service.o
 .text.handleBondNotify
                0x0005575a       0x12 depend_Debug_CSR102x_A06\gaia_service.o
 .text.handleSignalNumberOfCompletedPackets
                0x0005576c       0x13 depend_Debug_CSR102x_A06\gaia_service.o
 .text.handleConnMgrProcedureEvent
                0x0005577f       0x1f depend_Debug_CSR102x_A06\gaia_service.o
 .text.GAIAInitServerService
                0x0005579e       0x20 depend_Debug_CSR102x_A06\gaia_service.o
                0x0005579e                GAIAInitServerService
 .text.GAIASendNotification
                0x000557be       0x30 depend_Debug_CSR102x_A06\gaia_service.o
                0x000557be                GAIASendNotification
 .text.HextoASCII
                0x000557ee       0x10 depend_Debug_CSR102x_A06\main_app.o
                0x000557ee                HextoASCII
 .text.configStoreProcessEvent
                0x000557fe       0x96 depend_Debug_CSR102x_A06\main_app.o
 .text.readUserKeys
                0x00055894        0xa depend_Debug_CSR102x_A06\main_app.o
 .text.InitAppSupportedServices
                0x0005589e       0x2c depend_Debug_CSR102x_A06\main_app.o
                0x0005589e                InitAppSupportedServices
 .text.AppDataInit
                0x000558ca        0x8 depend_Debug_CSR102x_A06\main_app.o
                0x000558ca                AppDataInit
 .text.AppInit  0x000558d2       0x21 depend_Debug_CSR102x_A06\main_app.o
                0x000558d2                AppInit
 .text.appUserReadIndCallback
                0x000558f3       0x84 depend_Debug_CSR102x_A06\main_app.o
 .text.AppNvmReady
                0x00055977       0x11 depend_Debug_CSR102x_A06\main_app.o
                0x00055977                AppNvmReady
 .text.AppProcessSystemEvent
                0x00055988       0x12 depend_Debug_CSR102x_A06\main_app.o
                0x00055988                AppProcessSystemEvent
 .text.AppProcessEvent
                0x0005599a       0x47 depend_Debug_CSR102x_A06\main_app.o
                0x0005599a                AppProcessEvent
 .text.setMeshConfigParams
                0x000559e1       0x13 depend_Debug_CSR102x_A06\app_mesh_handler.o
 .text.setGenericConfigParams
                0x000559f4       0x1c depend_Debug_CSR102x_A06\app_mesh_handler.o
 .text.setLeConfigParams
                0x00055a10        0x8 depend_Debug_CSR102x_A06\app_mesh_handler.o
 .text.initializeSupportedModelData
                0x00055a18        0x4 depend_Debug_CSR102x_A06\app_mesh_handler.o
 .text.initializeSupportedModels
                0x00055a1c        0xa depend_Debug_CSR102x_A06\app_mesh_handler.o
 .text.initializeSupportedModelGroups
                0x00055a26       0x2e depend_Debug_CSR102x_A06\app_mesh_handler.o
                0x00055a26                initializeSupportedModelGroups
 .text.writeSupportedModelGroupsOntoNVM
                0x00055a54        0xb depend_Debug_CSR102x_A06\app_mesh_handler.o
                0x00055a54                writeSupportedModelGroupsOntoNVM
 .text.readSupportedModelGroupsFromNVM
                0x00055a5f        0xb depend_Debug_CSR102x_A06\app_mesh_handler.o
 .text.readPersistentStore
                0x00055a6a       0xa7 depend_Debug_CSR102x_A06\app_mesh_handler.o
 .text.AppMeshInit
                0x00055b11       0x44 depend_Debug_CSR102x_A06\app_mesh_handler.o
                0x00055b11                AppMeshInit
 .text.HandleGroupSetMsg
                0x00055b55       0x29 depend_Debug_CSR102x_A06\app_mesh_handler.o
                0x00055b55                HandleGroupSetMsg
 .text.RemoveAssociation
                0x00055b7e       0x4f depend_Debug_CSR102x_A06\app_mesh_handler.o
                0x00055b7e                RemoveAssociation
 .text.AppHandleAssociationComplete
                0x00055bcd       0x1a depend_Debug_CSR102x_A06\app_mesh_handler.o
                0x00055bcd                AppHandleAssociationComplete
 .text.IsAppAssociated
                0x00055be7        0xb depend_Debug_CSR102x_A06\app_mesh_handler.o
                0x00055be7                IsAppAssociated
 .text.UUIDrandom
                0x00055bf2       0x20 depend_Debug_CSR102x_A06\app_mesh_handler.o
                0x00055bf2                UUIDrandom
 .text.HandlePIOChangedEvent
                0x00055c12       0x2b depend_Debug_CSR102x_A06\app_hw.o
                0x00055c12                HandlePIOChangedEvent
 .text.LightHardwareInit
                0x00055c3d        0x4 depend_Debug_CSR102x_A06\app_hw.o
                0x00055c3d                LightHardwareInit
 .text.genUartCheckSum
                0x00055c41       0x1d depend_Debug_CSR102x_A06\ONESECOND.o
                0x00055c41                genUartCheckSum
 .text.timerCallbackUartRxedPinToLow
                0x00055c5e        0x8 depend_Debug_CSR102x_A06\ONESECOND.o
                0x00055c5e                timerCallbackUartRxedPinToLow
 .text.timerCallbackWaitUartTxAck
                0x00055c66        0xd depend_Debug_CSR102x_A06\ONESECOND.o
                0x00055c66                timerCallbackWaitUartTxAck
 .text.createUartTxAckTimeout
                0x00055c73       0x11 depend_Debug_CSR102x_A06\ONESECOND.o
                0x00055c73                createUartTxAckTimeout
 .text.timerCallbackUartTxedPinToLow
                0x00055c84        0x8 depend_Debug_CSR102x_A06\ONESECOND.o
                0x00055c84                timerCallbackUartTxedPinToLow
 .text.sendTxData
                0x00055c8c       0x1b depend_Debug_CSR102x_A06\ONESECOND.o
                0x00055c8c                sendTxData
 .text.setUartTxAckFlag
                0x00055ca7        0x6 depend_Debug_CSR102x_A06\ONESECOND.o
                0x00055ca7                setUartTxAckFlag
 .text.mainUartTxHandler
                0x00055cad       0x39 depend_Debug_CSR102x_A06\ONESECOND.o
                0x00055cad                mainUartTxHandler
 .text.copyToTXPacketBuffer
                0x00055ce6       0x20 depend_Debug_CSR102x_A06\uart_queue.o
                0x00055ce6                copyToTXPacketBuffer
 .text.getTXPacketBuff
                0x00055d06       0x25 depend_Debug_CSR102x_A06\uart_queue.o
                0x00055d06                getTXPacketBuff
 .text.appUartProcessReadIndEvent
                0x00055d2b       0x17 depend_Debug_CSR102x_A06\UARTMCU.o
 .text.appUartProcessWriteCfmEvent
                0x00055d42        0x3 depend_Debug_CSR102x_A06\UARTMCU.o
 .text.AppUartProcessEvent
                0x00055d45       0x23 depend_Debug_CSR102x_A06\UARTMCU.o
                0x00055d45                AppUartProcessEvent
 .text.UARTMCUinit
                0x00055d68       0x38 depend_Debug_CSR102x_A06\UARTMCU.o
                0x00055d68                UARTMCUinit
 .text.CSRmeshRegisterAppCallback
                0x00055da0       0x14 ..\mesh_common\mesh\libraries\CSR102x_A06\libcsrmesh.a(csr_mesh.o)
                0x00055da0                CSRmeshRegisterAppCallback
 .text.___libcsrmesh_85
                0x00055db4        0xc ..\mesh_common\mesh\libraries\CSR102x_A06\libcsrmesh.a(csr_mesh.o)
                0x00055db4                ___libcsrmesh_85
 .text.CSRmeshAssociateToANetwork
                0x00055dc0       0x18 ..\mesh_common\mesh\libraries\CSR102x_A06\libcsrmesh.a(csr_mesh.o)
                0x00055dc0                CSRmeshAssociateToANetwork
 .text.CSRmeshGetDefaultTTL
                0x00055dd8       0x1b ..\mesh_common\mesh\libraries\CSR102x_A06\libcsrmesh.a(csr_mesh.o)
                0x00055dd8                CSRmeshGetDefaultTTL
 .text.CSRmeshSetDefaultTTL
                0x00055df3       0x10 ..\mesh_common\mesh\libraries\CSR102x_A06\libcsrmesh.a(csr_mesh.o)
                0x00055df3                CSRmeshSetDefaultTTL
 .text.CSRmeshDisableSequenceCache
                0x00055e03        0x2 ..\mesh_common\mesh\libraries\CSR102x_A06\libcsrmesh.a(csr_mesh.o)
                0x00055e03                CSRmeshDisableSequenceCache
 .text.CSRmeshSetTransmitState
                0x00055e05       0x27 ..\mesh_common\mesh\libraries\CSR102x_A06\libcsrmesh.a(csr_mesh.o)
                0x00055e05                CSRmeshSetTransmitState
 .text.___libcsrmesh_84
                0x00055e2c        0x9 ..\mesh_common\mesh\libraries\CSR102x_A06\libcsrmesh.a(csr_mesh.o)
                0x00055e2c                ___libcsrmesh_84
 .text.___libcsrmesh_88
                0x00055e35       0x31 ..\mesh_common\mesh\libraries\CSR102x_A06\libcsrmesh.a(csr_mesh.o)
                0x00055e35                ___libcsrmesh_88
 .text.CSRmeshRemoveNetwork
                0x00055e66       0x24 ..\mesh_common\mesh\libraries\CSR102x_A06\libcsrmesh.a(csr_mesh.o)
                0x00055e66                CSRmeshRemoveNetwork
 .text.CSRMeshUpdateMeshContextData
                0x00055e8a       0x9a ..\mesh_common\mesh\libraries\CSR102x_A06\libcsrmesh.a(csr_mesh.o)
 .text.CSRmeshStop
                0x00055f24       0x18 ..\mesh_common\mesh\libraries\CSR102x_A06\libcsrmesh.a(csr_mesh.o)
                0x00055f24                CSRmeshStop
 .text.CSRmeshStart
                0x00055f3c       0x20 ..\mesh_common\mesh\libraries\CSR102x_A06\libcsrmesh.a(csr_mesh.o)
                0x00055f3c                CSRmeshStart
 .text.CSRMeshUpdateConfigRole
                0x00055f5c       0x14 ..\mesh_common\mesh\libraries\CSR102x_A06\libcsrmesh.a(csr_mesh.o)
 .text.CSRmeshInit
                0x00055f70       0x67 ..\mesh_common\mesh\libraries\CSR102x_A06\libcsrmesh.a(csr_mesh.o)
                0x00055f70                CSRmeshInit
 .text.___libcsrmesh_215
                0x00055fd7       0x22 ..\mesh_common\mesh\libraries\CSR102x_A06\libcsrmesh.a(csr_mesh_masp_mcp_common.o)
                0x00055fd7                ___libcsrmesh_215
 .text.___libcsrmesh_281
                0x00055ff9        0x5 ..\mesh_common\mesh\libraries\CSR102x_A06\libcsrmesh.a(csr_mesh_mtl.o)
                0x00055ff9                ___libcsrmesh_281
 .text.___libcsrmesh_273
                0x00055ffe        0x6 ..\mesh_common\mesh\libraries\CSR102x_A06\libcsrmesh.a(csr_mesh_mtl.o)
                0x00055ffe                ___libcsrmesh_273
 .text.___libcsrmesh_274
                0x00056004        0x5 ..\mesh_common\mesh\libraries\CSR102x_A06\libcsrmesh.a(csr_mesh_mtl.o)
                0x00056004                ___libcsrmesh_274
 .text.___libcsrmesh_270
                0x00056009        0x7 ..\mesh_common\mesh\libraries\CSR102x_A06\libcsrmesh.a(csr_mesh_mtl.o)
                0x00056009                ___libcsrmesh_270
 .text.___libcsrmesh_278
                0x00056010       0x6c ..\mesh_common\mesh\libraries\CSR102x_A06\libcsrmesh.a(csr_mesh_mtl.o)
                0x00056010                ___libcsrmesh_278
 .text.___libcsrmesh_282
                0x0005607c       0x21 ..\mesh_common\mesh\libraries\CSR102x_A06\libcsrmesh.a(csr_mesh_mtl.o)
                0x0005607c                ___libcsrmesh_282
 .text.___libcsrmesh_283
                0x0005609d       0x23 ..\mesh_common\mesh\libraries\CSR102x_A06\libcsrmesh.a(csr_mesh_mtl.o)
                0x0005609d                ___libcsrmesh_283
 .text.___libcsrmesh_272
                0x000560c0       0x2d ..\mesh_common\mesh\libraries\CSR102x_A06\libcsrmesh.a(csr_mesh_mtl.o)
                0x000560c0                ___libcsrmesh_272
 .text.MtlCryptMessage
                0x000560ed       0x28 ..\mesh_common\mesh\libraries\CSR102x_A06\libcsrmesh.a(csr_mesh_mtl.o)
 .text.___libcsrmesh_276
                0x00056115      0x22b ..\mesh_common\mesh\libraries\CSR102x_A06\libcsrmesh.a(csr_mesh_mtl.o)
                0x00056115                ___libcsrmesh_276
 .text.___libcsrmesh_279
                0x00056340       0x59 ..\mesh_common\mesh\libraries\CSR102x_A06\libcsrmesh.a(csr_mesh_mtl.o)
                0x00056340                ___libcsrmesh_279
 .text.___libcsrmesh_271
                0x00056399       0x1e ..\mesh_common\mesh\libraries\CSR102x_A06\libcsrmesh.a(csr_mesh_mtl.o)
                0x00056399                ___libcsrmesh_271
 .text.___libcsrmesh_284
                0x000563b7       0x33 ..\mesh_common\mesh\libraries\CSR102x_A06\libcsrmesh.a(csr_mesh_mtl.o)
                0x000563b7                ___libcsrmesh_284
 .text.___libcsrmesh_118
                0x000563ea        0x3 ..\mesh_common\mesh\libraries\CSR102x_A06\libcsrmesh.a(csr_mesh_ec_alloc.o)
                0x000563ea                ___libcsrmesh_118
 .text.___libcsrmesh_119
                0x000563ed        0x1 ..\mesh_common\mesh\libraries\CSR102x_A06\libcsrmesh.a(csr_mesh_ec_alloc.o)
                0x000563ed                ___libcsrmesh_119
 .text.___libcsrmesh_117
                0x000563ee        0xa ..\mesh_common\mesh\libraries\CSR102x_A06\libcsrmesh.a(csr_mesh_ec_alloc.o)
                0x000563ee                ___libcsrmesh_117
 .text.___libcsrmesh_116
                0x000563f8       0x1f ..\mesh_common\mesh\libraries\CSR102x_A06\libcsrmesh.a(csr_mesh_ec_alloc.o)
                0x000563f8                ___libcsrmesh_116
 .text.maspFreeConfirmationBuffers
                0x00056417       0x12 ..\mesh_common\mesh\libraries\CSR102x_A06\libcsrmesh.a(csr_mesh_masp.o)
 .text.maspFreeClientPublicKeyBuffer
                0x00056429        0xc ..\mesh_common\mesh\libraries\CSR102x_A06\libcsrmesh.a(csr_mesh_masp.o)
 .text.maspFreeAlgoBuffer
                0x00056435        0xa ..\mesh_common\mesh\libraries\CSR102x_A06\libcsrmesh.a(csr_mesh_masp.o)
 .text.maspAllocNmakeKeyPair
                0x0005643f       0x17 ..\mesh_common\mesh\libraries\CSR102x_A06\libcsrmesh.a(csr_mesh_masp.o)
 .text.maspAllocAlgoBuffer
                0x00056456        0x6 ..\mesh_common\mesh\libraries\CSR102x_A06\libcsrmesh.a(csr_mesh_masp.o)
 .text.maspAllocClientPublicKeyBuffer
                0x0005645c       0x12 ..\mesh_common\mesh\libraries\CSR102x_A06\libcsrmesh.a(csr_mesh_masp.o)
 .text.maspSendEventToApp
                0x0005646e       0x28 ..\mesh_common\mesh\libraries\CSR102x_A06\libcsrmesh.a(csr_mesh_masp.o)
 .text.maspResetState
                0x00056496       0x61 ..\mesh_common\mesh\libraries\CSR102x_A06\libcsrmesh.a(csr_mesh_masp.o)
 .text.___libcsrmesh_208
                0x000564f7        0x2 ..\mesh_common\mesh\libraries\CSR102x_A06\libcsrmesh.a(csr_mesh_masp.o)
                0x000564f7                ___libcsrmesh_208
 .text.maspPrepareKeyIVDistributionAckResponse
                0x000564f9       0x1d ..\mesh_common\mesh\libraries\CSR102x_A06\libcsrmesh.a(csr_mesh_masp.o)
 .text.___libcsrmesh_212
                0x00056516       0x15 ..\mesh_common\mesh\libraries\CSR102x_A06\libcsrmesh.a(csr_mesh_masp.o)
                0x00056516                ___libcsrmesh_212
 .text.___libcsrmesh_204
                0x0005652b        0x9 ..\mesh_common\mesh\libraries\CSR102x_A06\libcsrmesh.a(csr_mesh_masp.o)
                0x0005652b                ___libcsrmesh_204
 .text.maspCalculateConfirmation
                0x00056534       0x51 ..\mesh_common\mesh\libraries\CSR102x_A06\libcsrmesh.a(csr_mesh_masp.o)
 .text.maspGenerateNetworkIdentifier
                0x00056585       0x26 ..\mesh_common\mesh\libraries\CSR102x_A06\libcsrmesh.a(csr_mesh_masp.o)
 .text.maspGenerateKeyIVStateSignature
                0x000565ab       0x36 ..\mesh_common\mesh\libraries\CSR102x_A06\libcsrmesh.a(csr_mesh_masp.o)
 .text.maspAllocConfirmationBuffers
                0x000565e1       0x26 ..\mesh_common\mesh\libraries\CSR102x_A06\libcsrmesh.a(csr_mesh_masp.o)
 .text.___libcsrmesh_205
                0x00056607       0x10 ..\mesh_common\mesh\libraries\CSR102x_A06\libcsrmesh.a(csr_mesh_masp.o)
                0x00056607                ___libcsrmesh_205
 .text.maspGenerateRandom
                0x00056617       0x2a ..\mesh_common\mesh\libraries\CSR102x_A06\libcsrmesh.a(csr_mesh_masp.o)
 .text.maspUpdateKeyIVStatus
                0x00056641       0x65 ..\mesh_common\mesh\libraries\CSR102x_A06\libcsrmesh.a(csr_mesh_masp.o)
 .text.maspSendMessage
                0x000566a6       0x44 ..\mesh_common\mesh\libraries\CSR102x_A06\libcsrmesh.a(csr_mesh_masp.o)
 .text.handleMaspMessage
                0x000566ea      0x503 ..\mesh_common\mesh\libraries\CSR102x_A06\libcsrmesh.a(csr_mesh_masp.o)
 .text.___libcsrmesh_207
                0x00056bed       0x58 ..\mesh_common\mesh\libraries\CSR102x_A06\libcsrmesh.a(csr_mesh_masp.o)
                0x00056bed                ___libcsrmesh_207
 .text.___libcsrmesh_199
                0x00056c45       0x3c ..\mesh_common\mesh\libraries\CSR102x_A06\libcsrmesh.a(csr_mesh_masp.o)
                0x00056c45                ___libcsrmesh_199
 .text.maspWatchdogTimeoutHandler
                0x00056c81       0x1f ..\mesh_common\mesh\libraries\CSR102x_A06\libcsrmesh.a(csr_mesh_masp.o)
 .text.___libcsrmesh_206
                0x00056ca0       0x55 ..\mesh_common\mesh\libraries\CSR102x_A06\libcsrmesh.a(csr_mesh_masp.o)
                0x00056ca0                ___libcsrmesh_206
 .text.___libcsrmesh_237
                0x00056cf5       0x11 ..\mesh_common\mesh\libraries\CSR102x_A06\libcsrmesh.a(csr_mesh_mcp.o)
                0x00056cf5                ___libcsrmesh_237
 .text.___libcsrmesh_236
                0x00056d06       0x18 ..\mesh_common\mesh\libraries\CSR102x_A06\libcsrmesh.a(csr_mesh_mcp.o)
                0x00056d06                ___libcsrmesh_236
 .text.___libcsrmesh_247
                0x00056d1e        0x8 ..\mesh_common\mesh\libraries\CSR102x_A06\libcsrmesh.a(csr_mesh_mcp.o)
                0x00056d1e                ___libcsrmesh_247
 .text.___libcsrmesh_246
                0x00056d26        0x3 ..\mesh_common\mesh\libraries\CSR102x_A06\libcsrmesh.a(csr_mesh_mcp.o)
                0x00056d26                ___libcsrmesh_246
 .text.___libcsrmesh_233
                0x00056d29        0x3 ..\mesh_common\mesh\libraries\CSR102x_A06\libcsrmesh.a(csr_mesh_mcp.o)
                0x00056d29                ___libcsrmesh_233
 .text.___libcsrmesh_235
                0x00056d2c        0x3 ..\mesh_common\mesh\libraries\CSR102x_A06\libcsrmesh.a(csr_mesh_mcp.o)
                0x00056d2c                ___libcsrmesh_235
 .text.___libcsrmesh_232
                0x00056d2f       0x32 ..\mesh_common\mesh\libraries\CSR102x_A06\libcsrmesh.a(csr_mesh_mcp.o)
                0x00056d2f                ___libcsrmesh_232
 .text.___libcsrmesh_241
                0x00056d61       0x83 ..\mesh_common\mesh\libraries\CSR102x_A06\libcsrmesh.a(csr_mesh_mcp.o)
                0x00056d61                ___libcsrmesh_241
 .text.___libcsrmesh_245
                0x00056de4       0x13 ..\mesh_common\mesh\libraries\CSR102x_A06\libcsrmesh.a(csr_mesh_mcp.o)
                0x00056de4                ___libcsrmesh_245
 .text.___libcsrmesh_239
                0x00056df7      0x22e ..\mesh_common\mesh\libraries\CSR102x_A06\libcsrmesh.a(csr_mesh_mcp.o)
                0x00056df7                ___libcsrmesh_239
 .text.___libcsrmesh_234
                0x00057025        0x5 ..\mesh_common\mesh\libraries\CSR102x_A06\libcsrmesh.a(csr_mesh_mcp.o)
                0x00057025                ___libcsrmesh_234
 .text.___libcsrmesh_459
                0x0005702a       0x2e ..\mesh_common\mesh\libraries\CSR102x_A06\libcsrmesh.a(csr_mesh_mcp.o)
                0x0005702a                ___libcsrmesh_459
 .text.___libcsrmesh_238
                0x00057058       0x4f ..\mesh_common\mesh\libraries\CSR102x_A06\libcsrmesh.a(csr_mesh_mcp.o)
                0x00057058                ___libcsrmesh_238
 .text.___libcsrmesh_297
                0x000570a7       0x97 ..\mesh_common\mesh\libraries\CSR102x_A06\libcsrmesh.a(csr_mesh_sha256_get_results.o)
                0x000570a7                ___libcsrmesh_297
 .text.___libcsrmesh_308
                0x0005713e       0x24 ..\mesh_common\mesh\libraries\CSR102x_A06\libcsrmesh.a(csr_mesh_sha256_hmac.o)
                0x0005713e                ___libcsrmesh_308
 .text.___libcsrmesh_304
                0x00057162       0x43 ..\mesh_common\mesh\libraries\CSR102x_A06\libcsrmesh.a(csr_mesh_sha256_hmac.o)
                0x00057162                ___libcsrmesh_304
 .text.___libcsrmesh_307
                0x000571a5       0x3d ..\mesh_common\mesh\libraries\CSR102x_A06\libcsrmesh.a(csr_mesh_sha256_hmac.o)
                0x000571a5                ___libcsrmesh_307
 .text.___libcsrmesh_305
                0x000571e2       0x79 ..\mesh_common\mesh\libraries\CSR102x_A06\libcsrmesh.a(csr_mesh_sha256_hmac.o)
                0x000571e2                ___libcsrmesh_305
 .text.___libcsrmesh_311
                0x0005725b       0x19 ..\mesh_common\mesh\libraries\CSR102x_A06\libcsrmesh.a(csr_mesh_sha256_initialise.o)
                0x0005725b                ___libcsrmesh_311
 .text.sha256_process_data
                0x00057274       0x85 ..\mesh_common\mesh\libraries\CSR102x_A06\libcsrmesh.a(csr_mesh_sha256_process_data.o)
 .text.___libcsrmesh_317
                0x000572f9        0xc ..\mesh_common\mesh\libraries\CSR102x_A06\libcsrmesh.a(csr_mesh_sha256_process_data.o)
                0x000572f9                ___libcsrmesh_317
 .text.___libcsrmesh_318
                0x00057305        0xa ..\mesh_common\mesh\libraries\CSR102x_A06\libcsrmesh.a(csr_mesh_sha256_process_data.o)
                0x00057305                ___libcsrmesh_318
 .text.___libcsrmesh_337
                0x0005730f       0x11 ..\mesh_common\mesh\libraries\CSR102x_A06\libcsrmesh.a(csr_mesh_bearer.o)
                0x0005730f                ___libcsrmesh_337
 .text.___libcsrmesh_330
                0x00057320       0x25 ..\mesh_common\mesh\libraries\CSR102x_A06\libcsrmesh.a(csr_mesh_bearer.o)
                0x00057320                ___libcsrmesh_330
 .text.___libcsrmesh_336
                0x00057345        0xa ..\mesh_common\mesh\libraries\CSR102x_A06\libcsrmesh.a(csr_mesh_bearer.o)
                0x00057345                ___libcsrmesh_336
 .text.___libcsrmesh_335
                0x0005734f       0x1f ..\mesh_common\mesh\libraries\CSR102x_A06\libcsrmesh.a(csr_mesh_bearer.o)
                0x0005734f                ___libcsrmesh_335
 .text.___libcsrmesh_332
                0x0005736e        0x8 ..\mesh_common\mesh\libraries\CSR102x_A06\libcsrmesh.a(csr_mesh_bearer.o)
                0x0005736e                ___libcsrmesh_332
 .text.___libcsrmesh_331
                0x00057376       0x35 ..\mesh_common\mesh\libraries\CSR102x_A06\libcsrmesh.a(csr_mesh_bearer.o)
                0x00057376                ___libcsrmesh_331
 .text.___libcsrmesh_333
                0x000573ab       0x21 ..\mesh_common\mesh\libraries\CSR102x_A06\libcsrmesh.a(csr_mesh_bearer.o)
                0x000573ab                ___libcsrmesh_333
 .text.___libcsrmesh_329
                0x000573cc        0x8 ..\mesh_common\mesh\libraries\CSR102x_A06\libcsrmesh.a(csr_mesh_bearer.o)
                0x000573cc                ___libcsrmesh_329
 .text.___libcsrmesh_334
                0x000573d4       0x62 ..\mesh_common\mesh\libraries\CSR102x_A06\libcsrmesh.a(csr_mesh_bearer.o)
                0x000573d4                ___libcsrmesh_334
 .text.___libcsrmesh_353
                0x00057436       0x11 ..\mesh_common\mesh\libraries\CSR102x_A06\libcsrmesh.a(csr_mesh_bearer_porting_util.o)
                0x00057436                ___libcsrmesh_353
 .text.___libcsrmesh_350
                0x00057447       0x19 ..\mesh_common\mesh\libraries\CSR102x_A06\libcsrmesh.a(csr_mesh_bearer_porting_util.o)
                0x00057447                ___libcsrmesh_350
 .text.___libcsrmesh_352
                0x00057460       0x1d ..\mesh_common\mesh\libraries\CSR102x_A06\libcsrmesh.a(csr_mesh_bearer_porting_util.o)
                0x00057460                ___libcsrmesh_352
 .text.___libcsrmesh_355
                0x0005747d        0x3 ..\mesh_common\mesh\libraries\CSR102x_A06\libcsrmesh.a(csr_mesh_bearer_porting_util.o)
                0x0005747d                ___libcsrmesh_355
 .text.___libcsrmesh_354
                0x00057480        0x3 ..\mesh_common\mesh\libraries\CSR102x_A06\libcsrmesh.a(csr_mesh_bearer_porting_util.o)
                0x00057480                ___libcsrmesh_354
 .text.___libcsrmesh_351
                0x00057483       0x58 ..\mesh_common\mesh\libraries\CSR102x_A06\libcsrmesh.a(csr_mesh_bearer_porting_util.o)
                0x00057483                ___libcsrmesh_351
 .text.checkMessageInTransmitQueue
                0x000574db       0x40 ..\mesh_common\mesh\libraries\CSR102x_A06\libcsrmesh.a(csr_mesh_bearer_porting_util.o)
 .text.___libcsrmesh_349
                0x0005751b       0x74 ..\mesh_common\mesh\libraries\CSR102x_A06\libcsrmesh.a(csr_mesh_bearer_porting_util.o)
                0x0005751b                ___libcsrmesh_349
 .text.CSRSchedGetScanDutyCycle
                0x0005758f       0x1b ..\mesh_common\mesh\libraries\CSR102x_A06\libcsrmesh.a(csr1010_scheduler.o)
                0x0005758f                CSRSchedGetScanDutyCycle
 .text.IsCSRSchedRunning
                0x000575aa        0x5 ..\mesh_common\mesh\libraries\CSR102x_A06\libcsrmesh.a(csr1010_scheduler.o)
                0x000575aa                IsCSRSchedRunning
 .text.CSRSchedLeAdvScanDisable
                0x000575af       0x12 ..\mesh_common\mesh\libraries\CSR102x_A06\libcsrmesh.a(csr1010_scheduler.o)
 .text.CSRSchedLeStartScan
                0x000575c1       0x44 ..\mesh_common\mesh\libraries\CSR102x_A06\libcsrmesh.a(csr1010_scheduler.o)
 .text.CSRSchedEnableListening
                0x00057605       0x13 ..\mesh_common\mesh\libraries\CSR102x_A06\libcsrmesh.a(csr1010_scheduler.o)
                0x00057605                CSRSchedEnableListening
 .text.CSRSchedSetScanDutyCycle
                0x00057618       0xc8 ..\mesh_common\mesh\libraries\CSR102x_A06\libcsrmesh.a(csr1010_scheduler.o)
                0x00057618                CSRSchedSetScanDutyCycle
 .text.CSRSchedHandleIncomingData
                0x000576e0       0x4f ..\mesh_common\mesh\libraries\CSR102x_A06\libcsrmesh.a(csr1010_scheduler.o)
                0x000576e0                CSRSchedHandleIncomingData
 .text.CSRSchedMeshLeStartAdverts
                0x0005772f       0xa0 ..\mesh_common\mesh\libraries\CSR102x_A06\libcsrmesh.a(csr1010_scheduler.o)
 .text.CSRSchedSendPriorityMsg
                0x000577cf       0x22 ..\mesh_common\mesh\libraries\CSR102x_A06\libcsrmesh.a(csr1010_scheduler.o)
                0x000577cf                CSRSchedSendPriorityMsg
 .text.CSRSchedAdvertTimeoutHandler
                0x000577f1       0x6e ..\mesh_common\mesh\libraries\CSR102x_A06\libcsrmesh.a(csr1010_scheduler.o)
 .text.CSRSchedLeStartUserAdverts
                0x0005785f       0x7c ..\mesh_common\mesh\libraries\CSR102x_A06\libcsrmesh.a(csr1010_scheduler.o)
 .text.CSRSchedMeshLeStartAdvertsFromQueue
                0x000578db       0x13 ..\mesh_common\mesh\libraries\CSR102x_A06\libcsrmesh.a(csr1010_scheduler.o)
 .text.CSRSchedScanTimeoutHandler
                0x000578ee       0x13 ..\mesh_common\mesh\libraries\CSR102x_A06\libcsrmesh.a(csr1010_scheduler.o)
 .text.CSRSchedStart
                0x00057901       0x24 ..\mesh_common\mesh\libraries\CSR102x_A06\libcsrmesh.a(csr1010_scheduler.o)
                0x00057901                CSRSchedStart
 .text.CSRSchedNotifyGattEvent
                0x00057925       0xae ..\mesh_common\mesh\libraries\CSR102x_A06\libcsrmesh.a(csr1010_scheduler.o)
                0x00057925                CSRSchedNotifyGattEvent
 .text.CSRSchedMissingRadioEventTimeoutHandler
                0x000579d3        0xd ..\mesh_common\mesh\libraries\CSR102x_A06\libcsrmesh.a(csr1010_scheduler.o)
 .text.CSRSchedConnectionBusyTimeoutHandler
                0x000579e0       0x23 ..\mesh_common\mesh\libraries\CSR102x_A06\libcsrmesh.a(csr1010_scheduler.o)
 .text.CSRSchedSendUserAdv
                0x00057a03       0x47 ..\mesh_common\mesh\libraries\CSR102x_A06\libcsrmesh.a(csr1010_scheduler.o)
                0x00057a03                CSRSchedSendUserAdv
 .text.CSRSchedGetConfigParams
                0x00057a4a       0x41 ..\mesh_common\mesh\libraries\CSR102x_A06\libcsrmesh.a(csr1010_scheduler.o)
                0x00057a4a                CSRSchedGetConfigParams
 .text.CSRSchedSetConfigParams
                0x00057a8b       0x76 ..\mesh_common\mesh\libraries\CSR102x_A06\libcsrmesh.a(csr1010_scheduler.o)
                0x00057a8b                CSRSchedSetConfigParams
 .text.CsrSchedSetTxPower
                0x00057b01        0x8 ..\mesh_common\mesh\libraries\CSR102x_A06\libcsrmesh.a(csr1010_scheduler.o)
                0x00057b01                CsrSchedSetTxPower
 .text.CSRSchedEnableRadioEvent
                0x00057b09       0x12 ..\mesh_common\mesh\libraries\CSR102x_A06\libcsrmesh.a(csr1010_scheduler.o)
                0x00057b09                CSRSchedEnableRadioEvent
 .text.CSRSchedDisableRadioEvent
                0x00057b1b       0x11 ..\mesh_common\mesh\libraries\CSR102x_A06\libcsrmesh.a(csr1010_scheduler.o)
                0x00057b1b                CSRSchedDisableRadioEvent
 .text.___libcsrmesh_363
                0x00057b2c        0x6 ..\mesh_common\mesh\libraries\CSR102x_A06\libcsrmesh.a(csr_mesh_hal_ifce.o)
                0x00057b2c                ___libcsrmesh_363
 .text.___libcsrmesh_367
                0x00057b32        0x5 ..\mesh_common\mesh\libraries\CSR102x_A06\libcsrmesh.a(csr_mesh_hal_ifce.o)
                0x00057b32                ___libcsrmesh_367
 .text.___libcsrmesh_362
                0x00057b37        0xc ..\mesh_common\mesh\libraries\CSR102x_A06\libcsrmesh.a(csr_mesh_hal_ifce.o)
                0x00057b37                ___libcsrmesh_362
 .text.___libcsrmesh_366
                0x00057b43        0xb ..\mesh_common\mesh\libraries\CSR102x_A06\libcsrmesh.a(csr_mesh_hal_ifce.o)
                0x00057b43                ___libcsrmesh_366
 .text.___libcsrmesh_365
                0x00057b4e        0xe ..\mesh_common\mesh\libraries\CSR102x_A06\libcsrmesh.a(csr_mesh_hal_ifce.o)
                0x00057b4e                ___libcsrmesh_365
 .text.___libcsrmesh_364
                0x00057b5c        0x3 ..\mesh_common\mesh\libraries\CSR102x_A06\libcsrmesh.a(csr_mesh_hal_ifce.o)
                0x00057b5c                ___libcsrmesh_364
 .text.___libcsrmesh_371
                0x00057b5f       0x5f ..\mesh_common\mesh\libraries\CSR102x_A06\libcsrmesh.a(csr_mesh_security_ifce_101x.o)
                0x00057b5f                ___libcsrmesh_371
 .text.___libcsrmesh_373
                0x00057bbe       0x24 ..\mesh_common\mesh\libraries\CSR102x_A06\libcsrmesh.a(csr_mesh_security_ifce_101x.o)
                0x00057bbe                ___libcsrmesh_373
 .text.___libcsrmesh_372
                0x00057be2       0x21 ..\mesh_common\mesh\libraries\CSR102x_A06\libcsrmesh.a(csr_mesh_security_ifce_101x.o)
                0x00057be2                ___libcsrmesh_372
 .text.___libcsrmesh_111
                0x00057c03       0x15 ..\mesh_common\mesh\libraries\CSR102x_A06\libcsrmesh.a(csr_mesh_config_model.o)
                0x00057c03                ___libcsrmesh_111
 .text.ConfigModelInit
                0x00057c18       0x1b ..\mesh_common\mesh\libraries\CSR102x_A06\libcsrmesh.a(csr_mesh_config_model.o)
                0x00057c18                ConfigModelInit
 .text.handleConfigGetDeviceInfo
                0x00057c33      0x150 ..\mesh_common\mesh\libraries\CSR102x_A06\libcsrmesh.a(csr_mesh_config_model.o)
 .text.configModelServerHandler
                0x00057d83      0x30d ..\mesh_common\mesh\libraries\CSR102x_A06\libcsrmesh.a(csr_mesh_config_model.o)
 .text.BearerModelInit
                0x00058090       0x14 ..\mesh_common\mesh\libraries\CSR102x_A06\libcsrmesh.a(csr_mesh_bearer_model.o)
                0x00058090                BearerModelInit
 .text.handleMcpBearerModelMsg
                0x000580a4       0xb4 ..\mesh_common\mesh\libraries\CSR102x_A06\libcsrmesh.a(csr_mesh_bearer_model.o)
 .text.free_buffers
                0x00058158        0x3 ..\mesh_common\mesh\libraries\CSR102x_A06\libcsrmesh.a(csr_mesh_ec_math.o)
 .text.ec_math_192_double
                0x0005815b       0xb5 ..\mesh_common\mesh\libraries\CSR102x_A06\libcsrmesh.a(csr_mesh_ec_math.o)
 .text.ec_math_192_mul
                0x00058210      0x116 ..\mesh_common\mesh\libraries\CSR102x_A06\libcsrmesh.a(csr_mesh_ec_math.o)
 .text.___libcsrmesh_127
                0x00058326        0xc ..\mesh_common\mesh\libraries\CSR102x_A06\libcsrmesh.a(csr_mesh_ec_math.o)
                0x00058326                ___libcsrmesh_127
 .text.___libcsrmesh_128
                0x00058332       0x2e ..\mesh_common\mesh\libraries\CSR102x_A06\libcsrmesh.a(csr_mesh_ec_math.o)
                0x00058332                ___libcsrmesh_128
 .text.GroupModelInit
                0x00058360       0x14 ..\mesh_common\mesh\libraries\CSR102x_A06\libcsrmesh.a(csr_mesh_group_model.o)
                0x00058360                GroupModelInit
 .text.groupModelServerHandler
                0x00058374      0x11d ..\mesh_common\mesh\libraries\CSR102x_A06\libcsrmesh.a(csr_mesh_group_model.o)
 .text.___libcsrmesh_159
                0x00058491       0x2e ..\mesh_common\mesh\libraries\CSR102x_A06\libcsrmesh.a(csr_mesh_large_num.o)
                0x00058491                ___libcsrmesh_159
 .text.___libcsrmesh_157
                0x000584bf        0xc ..\mesh_common\mesh\libraries\CSR102x_A06\libcsrmesh.a(csr_mesh_large_num.o)
                0x000584bf                ___libcsrmesh_157
 .text.___libcsrmesh_161
                0x000584cb       0x10 ..\mesh_common\mesh\libraries\CSR102x_A06\libcsrmesh.a(csr_mesh_large_num.o)
                0x000584cb                ___libcsrmesh_161
 .text.___libcsrmesh_168
                0x000584db       0x25 ..\mesh_common\mesh\libraries\CSR102x_A06\libcsrmesh.a(csr_mesh_large_num.o)
                0x000584db                ___libcsrmesh_168
 .text.___libcsrmesh_158
                0x00058500       0x64 ..\mesh_common\mesh\libraries\CSR102x_A06\libcsrmesh.a(csr_mesh_large_num.o)
                0x00058500                ___libcsrmesh_158
 .text.___libcsrmesh_169
                0x00058564       0x4f ..\mesh_common\mesh\libraries\CSR102x_A06\libcsrmesh.a(csr_mesh_large_num.o)
                0x00058564                ___libcsrmesh_169
 .text.___libcsrmesh_165
                0x000585b3       0x18 ..\mesh_common\mesh\libraries\CSR102x_A06\libcsrmesh.a(csr_mesh_large_num.o)
                0x000585b3                ___libcsrmesh_165
 .text.___libcsrmesh_167
                0x000585cb       0x3b ..\mesh_common\mesh\libraries\CSR102x_A06\libcsrmesh.a(csr_mesh_large_num.o)
                0x000585cb                ___libcsrmesh_167
 .text.___libcsrmesh_166
                0x00058606       0x36 ..\mesh_common\mesh\libraries\CSR102x_A06\libcsrmesh.a(csr_mesh_large_num.o)
                0x00058606                ___libcsrmesh_166
 .text.___libcsrmesh_160
                0x0005863c        0x8 ..\mesh_common\mesh\libraries\CSR102x_A06\libcsrmesh.a(csr_mesh_large_num.o)
                0x0005863c                ___libcsrmesh_160
 .text.___libcsrmesh_171
                0x00058644       0xb6 ..\mesh_common\mesh\libraries\CSR102x_A06\libcsrmesh.a(csr_mesh_large_num.o)
                0x00058644                ___libcsrmesh_171
 .text.___libcsrmesh_155
                0x000586fa        0x2 ..\mesh_common\mesh\libraries\CSR102x_A06\libcsrmesh.a(csr_mesh_large_num.o)
                0x000586fa                ___libcsrmesh_155
 .text.___libcsrmesh_156
                0x000586fc        0x2 ..\mesh_common\mesh\libraries\CSR102x_A06\libcsrmesh.a(csr_mesh_large_num.o)
                0x000586fc                ___libcsrmesh_156
 .text.___libcsrmesh_170
                0x000586fe       0xac ..\mesh_common\mesh\libraries\CSR102x_A06\libcsrmesh.a(csr_mesh_large_num.o)
                0x000586fe                ___libcsrmesh_170
 .text.___libcsrmesh_163
                0x000587aa       0x14 ..\mesh_common\mesh\libraries\CSR102x_A06\libcsrmesh.a(csr_mesh_large_num.o)
                0x000587aa                ___libcsrmesh_163
 .text.___libcsrmesh_164
                0x000587be        0x5 ..\mesh_common\mesh\libraries\CSR102x_A06\libcsrmesh.a(csr_mesh_large_num.o)
                0x000587be                ___libcsrmesh_164
 .text.___libcsrmesh_162
                0x000587c3       0x21 ..\mesh_common\mesh\libraries\CSR102x_A06\libcsrmesh.a(csr_mesh_large_num.o)
                0x000587c3                ___libcsrmesh_162
 .text.___libcsrmesh_286
                0x000587e4       0x44 ..\mesh_common\mesh\libraries\CSR102x_A06\libcsrmesh.a(csr_mesh_sha_add_to_cache.o)
                0x000587e4                ___libcsrmesh_286
 .text.sha256_calc_ith_hash_val
                0x00058828      0x1b8 ..\mesh_common\mesh\libraries\CSR102x_A06\libcsrmesh.a(csr_mesh_sha256_calc_ith_hash_val.o)
 .text.___libcsrmesh_292
                0x000589e0       0x16 ..\mesh_common\mesh\libraries\CSR102x_A06\libcsrmesh.a(csr_mesh_sha256_calc_ith_hash_val.o)
                0x000589e0                ___libcsrmesh_292
 .text.___libcsrmesh_293
                0x000589f6       0x37 ..\mesh_common\mesh\libraries\CSR102x_A06\libcsrmesh.a(csr_mesh_sha256_calc_ith_hash_val.o)
                0x000589f6                ___libcsrmesh_293
 .text.___libcsrmesh_294
                0x00058a2d        0xb ..\mesh_common\mesh\libraries\CSR102x_A06\libcsrmesh.a(csr_mesh_sha256_calc_ith_hash_val.o)
                0x00058a2d                ___libcsrmesh_294
 .text.ExtensionClientSetupOpcodeList
                0x00058a38        0x7 ..\mesh_common\mesh\libraries\CSR102x_A06\libextension_client.a(extension_client_exception.o)
                0x00058a38                ExtensionClientSetupOpcodeList
 .text.ExtensionSendMessage
                0x00058a3f       0x4f ..\mesh_common\mesh\libraries\CSR102x_A06\libextension_client.a(extension_client_exception.o)
                0x00058a3f                ExtensionSendMessage
 .text.ExtensionModelInit
                0x00058a8e       0x1a ..\mesh_common\mesh\libraries\CSR102x_A06\libextension_server.a(extension_model.o)
                0x00058a8e                ExtensionModelInit
 .text.extensionModelServerHandler
                0x00058aa8       0xaa ..\mesh_common\mesh\libraries\CSR102x_A06\libextension_server.a(extension_model.o)
 .text.ExtensionServerSetupOpcodeList
                0x00058b52        0x7 ..\mesh_common\mesh\libraries\CSR102x_A06\libextension_server.a(extension_server_exception.o)
                0x00058b52                ExtensionServerSetupOpcodeList
 .text.___libextension_server_470
                0x00058b59       0x2e ..\mesh_common\mesh\libraries\CSR102x_A06\libextension_server.a(extension_server_exception.o)
                0x00058b59                ___libextension_server_470
 .text.GattInit
                0x00058b87       0x3d C:\CSR102x_SDK-3.1.1\tools\lib\CSR102x_A06\libgatt_lib_ram.a(gatt_init.o)
                0x00058b87                GattInit
 .text.GattExchangeMtuRsp
                0x00058bc4        0x3 C:\CSR102x_SDK-3.1.1\tools\lib\CSR102x_A06\libgatt_lib_ram.a(gatt_exchange_mtu_rsp_api.o)
                0x00058bc4                GattExchangeMtuRsp
 .text.DirectTestExtended
                0x00058bc7        0x3 C:\CSR102x_SDK-3.1.1\tools\lib\CSR102x_A06\libgatt_lib_ram.a(bletest.o)
                0x00058bc7                DirectTestExtended
 .text.patch_uart_in_event1
                0x00058bca       0x46 C:\CSR102x_SDK-3.1.1\tools\lib\CSR102x_A06\libgatt_lib_ram.a(patch_uart.o)
 .text.UartRead
                0x00058c10       0x59 C:\CSR102x_SDK-3.1.1\tools\lib\CSR102x_A06\libgatt_lib_ram.a(patch_uart.o)
                0x00058c10                UartRead
 .text.handle_uart_read_timeout
                0x00058c69       0x6f C:\CSR102x_SDK-3.1.1\tools\lib\CSR102x_A06\libgatt_lib_ram.a(patch_uart.o)
 .text.patch_UartCallBack
                0x00058cd8       0x41 C:\CSR102x_SDK-3.1.1\tools\lib\CSR102x_A06\libgatt_lib_ram.a(patch_uart.o)
 .text.UartInit
                0x00058d19       0x32 C:\CSR102x_SDK-3.1.1\tools\lib\CSR102x_A06\libgatt_lib_ram.a(patch_uart.o)
                0x00058d19                UartInit
 .text.___libgatt_lib_db_2134
                0x00058d4b       0x43 C:\CSR102x_SDK-3.1.1\tools\lib\CSR102x_A06\libgatt_lib_ram.a(sw_patch_ram.o)
                0x00058d4b                ___libgatt_lib_db_2134
 .text.ConfigStoreReadDeviceKey
                0x00058d8e       0x17 C:\CSR102x_SDK-3.1.1\tools\lib\CSR102x_A06\libgatt_lib_ram.a(configstore_api.o)
                0x00058d8e                ConfigStoreReadDeviceKey
 .text.ConfigStoreReadKey
                0x00058da5        0x5 C:\CSR102x_SDK-3.1.1\tools\lib\CSR102x_A06\libgatt_lib_ram.a(configstore_api.o)
                0x00058da5                ConfigStoreReadKey
 .text.Userstore_Write
                0x00058daa       0x21 C:\CSR102x_SDK-3.1.1\tools\lib\CSR102x_A06\libgatt_lib_ram.a(userstore_api.o)
                0x00058daa                Userstore_Write
 .text.Userstore_Read
                0x00058dcb       0x21 C:\CSR102x_SDK-3.1.1\tools\lib\CSR102x_A06\libgatt_lib_ram.a(userstore_api.o)
                0x00058dcb                Userstore_Read
 .text.Userstore_Create
                0x00058dec       0x19 C:\CSR102x_SDK-3.1.1\tools\lib\CSR102x_A06\libgatt_lib_ram.a(userstore_api.o)
                0x00058dec                Userstore_Create
 .text.Userstore_Open
                0x00058e05       0x12 C:\CSR102x_SDK-3.1.1\tools\lib\CSR102x_A06\libgatt_lib_ram.a(userstore_api.o)
                0x00058e05                Userstore_Open
 .text.___libgatt_lib_db_5615
                0x00058e17       0x30 C:\CSR102x_SDK-3.1.1\tools\lib\CSR102x_A06\libgatt_lib_ram.a(patch_store_update_msg_handler.o)
                0x00058e17                ___libgatt_lib_db_5615
 .text.find_start_new_store_otp
                0x00058e47       0x35 C:\CSR102x_SDK-3.1.1\tools\lib\CSR102x_A06\libgatt_lib_ram.a(patch_store_update_msg_handler.o)
 .text.___libgatt_lib_db_5616
                0x00058e7c       0xa7 C:\CSR102x_SDK-3.1.1\tools\lib\CSR102x_A06\libgatt_lib_ram.a(patch_store_update_msg_handler.o)
                0x00058e7c                ___libgatt_lib_db_5616
 .text.___libgatt_lib_db_5628
                0x00058f23       0x13 C:\CSR102x_SDK-3.1.1\tools\lib\CSR102x_A06\libgatt_lib_ram.a(patch_sysop_pmu_fht.o)
                0x00058f23                ___libgatt_lib_db_5628
 .text.___libgatt_lib_db_5648
                0x00058f36       0x4c C:\CSR102x_SDK-3.1.1\tools\lib\CSR102x_A06\libgatt_lib_ram.a(patch_bleinit.o)
                0x00058f36                ___libgatt_lib_db_5648
 .text.___libgatt_lib_db_5647
                0x00058f82        0xe C:\CSR102x_SDK-3.1.1\tools\lib\CSR102x_A06\libgatt_lib_ram.a(patch_bleinit.o)
                0x00058f82                ___libgatt_lib_db_5647
 .text.___libgatt_lib_db_5652
                0x00058f90       0x18 C:\CSR102x_SDK-3.1.1\tools\lib\CSR102x_A06\libgatt_lib_ram.a(patch_blerx.o)
                0x00058f90                ___libgatt_lib_db_5652
 .text.___libgatt_lib_db_5651
                0x00058fa8       0x10 C:\CSR102x_SDK-3.1.1\tools\lib\CSR102x_A06\libgatt_lib_ram.a(patch_blerx.o)
                0x00058fa8                ___libgatt_lib_db_5651
 .text.___libgatt_lib_db_5655
                0x00058fb8       0xf5 C:\CSR102x_SDK-3.1.1\tools\lib\CSR102x_A06\libgatt_lib_ram.a(patch_blelo.o)
                0x00058fb8                ___libgatt_lib_db_5655
 .text.___libgatt_lib_db_5656
                0x000590ad       0xc3 C:\CSR102x_SDK-3.1.1\tools\lib\CSR102x_A06\libgatt_lib_ram.a(patch_blelo.o)
                0x000590ad                ___libgatt_lib_db_5656
 .text.___libgatt_lib_db_5657
                0x00059170       0x4c C:\CSR102x_SDK-3.1.1\tools\lib\CSR102x_A06\libgatt_lib_ram.a(patch_blelo.o)
                0x00059170                ___libgatt_lib_db_5657
 .text.___libgatt_lib_db_5662
                0x000591bc       0x59 C:\CSR102x_SDK-3.1.1\tools\lib\CSR102x_A06\libgatt_lib_ram.a(patch_bletx.o)
                0x000591bc                ___libgatt_lib_db_5662
 .text.___libgatt_lib_db_5661
                0x00059215       0x50 C:\CSR102x_SDK-3.1.1\tools\lib\CSR102x_A06\libgatt_lib_ram.a(patch_bletx.o)
                0x00059215                ___libgatt_lib_db_5661
 .text.patch_bleradio_set_state
                0x00059265       0x2b C:\CSR102x_SDK-3.1.1\tools\lib\CSR102x_A06\libgatt_lib_ram.a(patch_hal_bleradio.o)
 .text.___libgatt_lib_db_5665
                0x00059290       0x16 C:\CSR102x_SDK-3.1.1\tools\lib\CSR102x_A06\libgatt_lib_ram.a(patch_hal_bleradio.o)
                0x00059290                ___libgatt_lib_db_5665
 .text.___libgatt_lib_db_5313
                0x000592a6       0x1d C:\CSR102x_SDK-3.1.1\tools\lib\CSR102x_A06\libgatt_lib_ram.a(strncpy.o)
                0x000592a6                ___libgatt_lib_db_5313
                0x000592a6                StrNCopy
 .text.___libgatt_lib_db_5670
                0x000592c3        0xc C:\CSR102x_SDK-3.1.1\tools\lib\CSR102x_A06\libgatt_lib_ram.a(patch_bg_ints.o)
                0x000592c3                ___libgatt_lib_db_5670
 .text.___libgatt_lib_db_5669
                0x000592cf        0xb C:\CSR102x_SDK-3.1.1\tools\lib\CSR102x_A06\libgatt_lib_ram.a(patch_bg_ints.o)
                0x000592cf                ___libgatt_lib_db_5669
 .text.___libgatt_lib_db_5668
                0x000592da        0xb C:\CSR102x_SDK-3.1.1\tools\lib\CSR102x_A06\libgatt_lib_ram.a(patch_bg_ints.o)
                0x000592da                ___libgatt_lib_db_5668
 .text.___libgatt_lib_db_5560
                0x000592e5       0x27 C:\CSR102x_SDK-3.1.1\tools\lib\CSR102x_A06\libgatt_lib_ram.a(patch_ls.o)
                0x000592e5                ___libgatt_lib_db_5560
 .text.___libgatt_lib_db_5559
                0x0005930c       0x11 C:\CSR102x_SDK-3.1.1\tools\lib\CSR102x_A06\libgatt_lib_ram.a(patch_ls.o)
                0x0005930c                ___libgatt_lib_db_5559
 .text.___libgatt_lib_db_5563
                0x0005931d       0x14 C:\CSR102x_SDK-3.1.1\tools\lib\CSR102x_A06\libgatt_lib_ram.a(patch_att.o)
                0x0005931d                ___libgatt_lib_db_5563
 .text.___libgatt_lib_db_5570
                0x00059331       0x5b C:\CSR102x_SDK-3.1.1\tools\lib\CSR102x_A06\libgatt_lib_ram.a(patch_george_interrupt.o)
                0x00059331                ___libgatt_lib_db_5570
 .text.___libgatt_lib_db_5569
                0x0005938c       0xb0 C:\CSR102x_SDK-3.1.1\tools\lib\CSR102x_A06\libgatt_lib_ram.a(patch_george_interrupt.o)
                0x0005938c                ___libgatt_lib_db_5569
 .text.le_app_int_irq_a06_patch
                0x0005943c       0x49 C:\CSR102x_SDK-3.1.1\tools\lib\CSR102x_A06\libgatt_lib_ram.a(patch_george_interrupt.o)
 .text.le_connection_event_end_irq_a06_patch
                0x00059485       0x7e C:\CSR102x_SDK-3.1.1\tools\lib\CSR102x_A06\libgatt_lib_ram.a(patch_george_interrupt.o)
 .text.___libgatt_lib_db_5568
                0x00059503       0x7c C:\CSR102x_SDK-3.1.1\tools\lib\CSR102x_A06\libgatt_lib_ram.a(patch_george_interrupt.o)
                0x00059503                ___libgatt_lib_db_5568
 .text.___libgatt_lib_db_5576
                0x0005957f        0x9 C:\CSR102x_SDK-3.1.1\tools\lib\CSR102x_A06\libgatt_lib_ram.a(patch_george.o)
                0x0005957f                ___libgatt_lib_db_5576
 .text.bt_timer_pte_lockup_timeout_a06_patch
                0x00059588        0x7 C:\CSR102x_SDK-3.1.1\tools\lib\CSR102x_A06\libgatt_lib_ram.a(patch_george.o)
 .text.___libgatt_lib_db_5574
                0x0005958f       0x44 C:\CSR102x_SDK-3.1.1\tools\lib\CSR102x_A06\libgatt_lib_ram.a(patch_george.o)
                0x0005958f                ___libgatt_lib_db_5574
 .text.___libgatt_lib_db_5575
                0x000595d3       0x2d C:\CSR102x_SDK-3.1.1\tools\lib\CSR102x_A06\libgatt_lib_ram.a(patch_george.o)
                0x000595d3                ___libgatt_lib_db_5575
 .text.___libgatt_lib_db_5580
                0x00059600      0x23a C:\CSR102x_SDK-3.1.1\tools\lib\CSR102x_A06\libgatt_lib_ram.a(patch_george_reset.o)
                0x00059600                ___libgatt_lib_db_5580
 .text.___libgatt_lib_db_5583
                0x0005983a       0x8f C:\CSR102x_SDK-3.1.1\tools\lib\CSR102x_A06\libgatt_lib_ram.a(patch_george_scheduler.o)
                0x0005983a                ___libgatt_lib_db_5583
 .text.___libgatt_lib_db_5582
                0x000598c9       0xc0 C:\CSR102x_SDK-3.1.1\tools\lib\CSR102x_A06\libgatt_lib_ram.a(patch_george_scheduler.o)
                0x000598c9                ___libgatt_lib_db_5582
 .text.___libgatt_lib_db_5586
                0x00059989       0x3f C:\CSR102x_SDK-3.1.1\tools\lib\CSR102x_A06\libgatt_lib_ram.a(patch_george_acl_tx_buffers.o)
                0x00059989                ___libgatt_lib_db_5586
 .text.___libgatt_lib_db_5587
                0x000599c8       0x13 C:\CSR102x_SDK-3.1.1\tools\lib\CSR102x_A06\libgatt_lib_ram.a(patch_george_acl_tx_buffers.o)
                0x000599c8                ___libgatt_lib_db_5587
 .text.___libgatt_lib_db_5591
                0x000599db       0x2d C:\CSR102x_SDK-3.1.1\tools\lib\CSR102x_A06\libgatt_lib_ram.a(patch_george_test.o)
                0x000599db                ___libgatt_lib_db_5591
 .text.___libgatt_lib_db_5592
                0x00059a08       0x10 C:\CSR102x_SDK-3.1.1\tools\lib\CSR102x_A06\libgatt_lib_ram.a(patch_george_test.o)
                0x00059a08                ___libgatt_lib_db_5592
 .text.___libgatt_lib_db_5590
                0x00059a18       0x11 C:\CSR102x_SDK-3.1.1\tools\lib\CSR102x_A06\libgatt_lib_ram.a(patch_george_test.o)
                0x00059a18                ___libgatt_lib_db_5590
 .text.patch_end_of_direct_test
                0x00059a29       0x18 C:\CSR102x_SDK-3.1.1\tools\lib\CSR102x_A06\libgatt_lib_ram.a(patch_george_test.o)
 .text.patch_end_of_direct_test_transmit
                0x00059a41       0x18 C:\CSR102x_SDK-3.1.1\tools\lib\CSR102x_A06\libgatt_lib_ram.a(patch_george_test.o)
 .text.overload_antenna_rssi
                0x00059a59       0x1a C:\CSR102x_SDK-3.1.1\tools\lib\CSR102x_A06\libgatt_lib_ram.a(patch_george_rssi.o)
 .text.___libgatt_lib_db_5596
                0x00059a73       0x25 C:\CSR102x_SDK-3.1.1\tools\lib\CSR102x_A06\libgatt_lib_ram.a(patch_george_rssi.o)
                0x00059a73                ___libgatt_lib_db_5596
 .text.patch_halmem_handletoinstance
                0x00059a98        0xd C:\CSR102x_SDK-3.1.1\tools\lib\CSR102x_A06\libgatt_lib_ram.a(patch_reset.o)
 .text.___libgatt_lib_db_5601
                0x00059aa5       0xda C:\CSR102x_SDK-3.1.1\tools\lib\CSR102x_A06\libgatt_lib_ram.a(patch_reset.o)
                0x00059aa5                ___libgatt_lib_db_5601
 .text.___libgatt_lib_db_5604
                0x00059b7f       0x34 C:\CSR102x_SDK-3.1.1\tools\lib\CSR102x_A06\libgatt_lib_ram.a(patch_background.o)
                0x00059b7f                ___libgatt_lib_db_5604
 .text.___libgatt_lib_db_5611
                0x00059bb3       0x2c C:\CSR102x_SDK-3.1.1\tools\lib\CSR102x_A06\libgatt_lib_ram.a(patch_wd.o)
                0x00059bb3                ___libgatt_lib_db_5611
 .text.___libgatt_lib_db_5606
                0x00059bdf       0x1f C:\CSR102x_SDK-3.1.1\tools\lib\CSR102x_A06\libgatt_lib_ram.a(patch_wd.o)
                0x00059bdf                ___libgatt_lib_db_5606
 .text.___libgatt_lib_db_5610
                0x00059bfe       0x1e C:\CSR102x_SDK-3.1.1\tools\lib\CSR102x_A06\libgatt_lib_ram.a(patch_wd.o)
                0x00059bfe                ___libgatt_lib_db_5610
 .text.wd_timer_carlos_handler
                0x00059c1c       0x14 C:\CSR102x_SDK-3.1.1\tools\lib\CSR102x_A06\libgatt_lib_ram.a(patch_wd.o)
 .text.___libgatt_lib_db_2336
                0x00059c30       0x76 C:\CSR102x_SDK-3.1.1\tools\lib\CSR102x_A06\libgatt_lib_ram.a(app_proxy_init.o)
                0x00059c30                ___libgatt_lib_db_2336
 .text.___libgatt_lib_db_5627
                0x00059ca6       0x3d C:\CSR102x_SDK-3.1.1\tools\lib\CSR102x_A06\libgatt_lib_ram.a(patch_hal_uart.o)
                0x00059ca6                ___libgatt_lib_db_5627
 .text.___libgatt_lib_db_5631
                0x00059ce3       0x95 C:\CSR102x_SDK-3.1.1\tools\lib\CSR102x_A06\libgatt_lib_ram.a(patch_sysop_fosc_trim.o)
                0x00059ce3                ___libgatt_lib_db_5631
 .text.smem_verify
                0x00059d78       0x54 C:\CSR102x_SDK-3.1.1\tools\lib\CSR102x_A06\libgatt_lib_ram.a(patch_smem.o)
 .text.___libgatt_lib_db_5633
                0x00059dcc       0x1f C:\CSR102x_SDK-3.1.1\tools\lib\CSR102x_A06\libgatt_lib_ram.a(patch_smem.o)
                0x00059dcc                ___libgatt_lib_db_5633
 .text.BtActivityAntennaSwitchOpened
                0x00059deb        0x9 C:\CSR102x_SDK-3.1.1\tools\lib\CSR102x_A06\libgatt_lib_ram.a(patch_activity.o)
                0x00059deb                BtActivityAntennaSwitchOpened
 .text.___libgatt_lib_db_2045
                0x00059df4        0x5 C:\CSR102x_SDK-3.1.1\tools\lib\CSR102x_A06\libgatt_lib_ram.a(hw_patch_install.o)
                0x00059df4                ___libgatt_lib_db_2045
 *(.apptext)
 *(.apptext.*)
                0x00059df9                APPINFO_APPCODE_END = .
                0x00059e00                . = ALIGN (0x8)
 *fill*         0x00059df9        0xe 00
                0x00059e00                PROG_APPCODE_SIGNATURE_START = .
                0x00059e00                . = (. + APP_SIGNATURE_SIZE)
                0x00059e00                PROG_APPCODE_SIGNATURE_END = .
                0x00059e00                PROG_APPCODE_HASH_START = .
                0x00059e10                . = (. + APP_HASH_SIZE)
 *fill*         0x00059e00       0x20 00
                0x00059e10                . = ALIGN (0x8)
                0x00059e10                PROG_APPCODE_HASH_END = .

.appbss         0x0000611b      0xe04
                0x0000611b                DATA_APPBSS_START = .
                0x0000611b                DATA_TIMER_START = .
 *(.bss.timer_data_section*)
 .bss.timer_data_section
                0x0000611b        0x2 depend_Debug_CSR102x_A06\gaia_otau.o
                0x0000611b                __timer_data_commit_timeout
                0x0000611d                DATA_TIMER_END = .
 *(.bss)
 *(.bss.*)
 .bss.g_gaia_command_char_uuid
                0x0000611d        0x8 depend_Debug_CSR102x_A06\gaia_client_service.o
 .bss.g_gaia_response_char_uuid
                0x00006125        0x8 depend_Debug_CSR102x_A06\gaia_client_service.o
 .bss.g_gaia_data_char_uuid
                0x0000612d        0x8 depend_Debug_CSR102x_A06\gaia_client_service.o
 .bss.g_descriptors
                0x00006135        0x3 depend_Debug_CSR102x_A06\gaia_client_service.o
 .bss.g_characteristics
                0x00006138       0x12 depend_Debug_CSR102x_A06\gaia_client_service.o
 .bss.g_service_instances
                0x0000614a        0x6 depend_Debug_CSR102x_A06\gaia_client_service.o
 .bss.g_gaia_client_service
                0x00006150        0x5 depend_Debug_CSR102x_A06\gaia_client_service.o
 .bss.g_gaia_client_service_info
                0x00006155        0x7 depend_Debug_CSR102x_A06\gaia_client_service.o
 .bss.g_gaia_client_data
                0x0000615c       0x17 depend_Debug_CSR102x_A06\gaia_client_service.o
 .bss.otaData   0x00006173        0xb depend_Debug_CSR102x_A06\gaia_otau_client.o
 .bss.local_data
                0x0000617e       0x14 depend_Debug_CSR102x_A06\conn_param_update.o
 .bss.g_nvm_fresh
                0x00006192        0x1 depend_Debug_CSR102x_A06\nvm_access.o
 .bss.g_nvm_state
                0x00006193        0x1 depend_Debug_CSR102x_A06\nvm_access.o
 .bss.g_nvm_sanity
                0x00006194        0x1 depend_Debug_CSR102x_A06\nvm_access.o
 .bss.g_nvm_offset
                0x00006195        0x1 depend_Debug_CSR102x_A06\nvm_access.o
 .bss.g_store_id
                0x00006196        0x1 depend_Debug_CSR102x_A06\nvm_access.o
 .bss.cm_notification_cfm
                0x00006197        0x3 depend_Debug_CSR102x_A06\cm_hal.o
 .bss.notif_cfm_tid
                0x0000619a        0x1 depend_Debug_CSR102x_A06\cm_hal.o
 .bss.g_cm_main_data
                0x0000619b        0x4 depend_Debug_CSR102x_A06\cm_private.o
 .bss.g_security_data
                0x0000619f        0x3 depend_Debug_CSR102x_A06\cm_security.o
 .bss.g_server_data
                0x000061a2        0x3 depend_Debug_CSR102x_A06\cm_server.o
 .bss.g_cm_observer_data
                0x000061a5        0xd depend_Debug_CSR102x_A06\cm_observer.o
 .bss.g_cm_peripheral_data
                0x000061b2       0x4e depend_Debug_CSR102x_A06\cm_peripheral.o
 .bss.g_cm_central_data
                0x00006200       0x10 depend_Debug_CSR102x_A06\cm_central.o
 .bss.g_client_data
                0x00006210        0x9 depend_Debug_CSR102x_A06\cm_client.o
 .bss.pio_msk_sw1
                0x00006219        0x3 depend_Debug_CSR102x_A06\iot_hw.o
 .bss.pio_msk_sw2
                0x0000621c        0x3 depend_Debug_CSR102x_A06\iot_hw.o
 .bss.sw1_mask_idx
                0x0000621f        0x1 depend_Debug_CSR102x_A06\iot_hw.o
 .bss.sw2_mask_idx
                0x00006220        0x1 depend_Debug_CSR102x_A06\iot_hw.o
 .bss.assoc_attn_tid
                0x00006221        0x1 depend_Debug_CSR102x_A06\core_mesh_handler.o
 .bss.dev_id_advert_tid
                0x00006222        0x1 depend_Debug_CSR102x_A06\core_mesh_handler.o
 .bss.p_mesh_hdlr_data
                0x00006223        0x1 depend_Debug_CSR102x_A06\core_mesh_handler.o
 .bss.unpackedData
                0x00006224       0x1f depend_Debug_CSR102x_A06\connection_handler.o
 .bss.rx_ttl    0x00006243        0x1 depend_Debug_CSR102x_A06\connection_handler.o
 .bss.g_conn_info
                0x00006244       0x10 depend_Debug_CSR102x_A06\connection_handler.o
 .bss.g_bonded_devices
                0x00006254       0x2e depend_Debug_CSR102x_A06\connection_handler.o
 .bss.g_server_info
                0x00006282       0x10 depend_Debug_CSR102x_A06\connection_handler.o
 .bss.g_client_info
                0x00006292        0x7 depend_Debug_CSR102x_A06\connection_handler.o
 .bss.gatt_data
                0x00006299       0x11 depend_Debug_CSR102x_A06\connection_handler.o
 .bss.gatt_event_data
                0x000062aa        0x4 depend_Debug_CSR102x_A06\connection_handler.o
 .bss.state     0x000062ae        0x1 depend_Debug_CSR102x_A06\connection_handler.o
 .bss.g_app_otau_data
                0x000062af       0x3e depend_Debug_CSR102x_A06\app_otau_handler.o
 .bss.scan_timeout_tid
                0x000062ed        0x1 depend_Debug_CSR102x_A06\scan_handler.o
 .bss.appOtaData
                0x000062ee      0x108 depend_Debug_CSR102x_A06\app_otau_client_handler.o
 .bss.enableFilteredSourceID
                0x000063f6        0x1 depend_Debug_CSR102x_A06\extension_model_handler.o
                0x000063f6                enableFilteredSourceID
 .bss.filteredSourceID
                0x000063f7        0x1 depend_Debug_CSR102x_A06\extension_model_handler.o
                0x000063f7                filteredSourceID
 .bss.enableFilteredLocationID
                0x000063f8        0x1 depend_Debug_CSR102x_A06\extension_model_handler.o
                0x000063f8                enableFilteredLocationID
 .bss.filteredLocationID
                0x000063f9        0x1 depend_Debug_CSR102x_A06\extension_model_handler.o
                0x000063f9                filteredLocationID
 .bss.ext_hdlr_data
                0x000063fa        0x2 depend_Debug_CSR102x_A06\extension_model_handler.o
 .bss.g_service_data
                0x000063fc        0x2 depend_Debug_CSR102x_A06\gap_service.o
 .bss.g_service_info
                0x000063fe        0x4 depend_Debug_CSR102x_A06\gap_service.o
 .bss.g_service_data
                0x00006402        0x5 depend_Debug_CSR102x_A06\gatt_service.o
 .bss.g_service_info
                0x00006407        0x4 depend_Debug_CSR102x_A06\gatt_service.o
 .bss.g_mesh_service_info
                0x0000640b        0x4 depend_Debug_CSR102x_A06\mesh_control_service.o
 .bss.g_gaia_lib_data
                0x0000640f        0x6 depend_Debug_CSR102x_A06\gaia.o
 .bss.g_otau_data
                0x00006415       0x40 depend_Debug_CSR102x_A06\gaia_otau.o
 .bss.g_gaia_service_info
                0x00006455        0x4 depend_Debug_CSR102x_A06\gaia_service.o
 .bss.g_gaia_data
                0x00006459       0x1c depend_Debug_CSR102x_A06\gaia_service.o
 .bss.packetRX  0x00006475        0x1 depend_Debug_CSR102x_A06\main_app.o
                0x00006475                packetRX
 .bss.firstFFfound
                0x00006476        0x1 depend_Debug_CSR102x_A06\main_app.o
                0x00006476                firstFFfound
 .bss.app_timers
                0x00006477       0x28 depend_Debug_CSR102x_A06\main_app.o
 .bss.SelfMeshID
                0x0000649f        0x1 depend_Debug_CSR102x_A06\app_mesh_handler.o
                0x0000649f                SelfMeshID
 .bss.tId_UART_TX_ACK
                0x000064a0        0x1 depend_Debug_CSR102x_A06\ONESECOND.o
                0x000064a0                tId_UART_TX_ACK
 .bss.gotTxAckFromESP
                0x000064a1        0x1 depend_Debug_CSR102x_A06\ONESECOND.o
                0x000064a1                gotTxAckFromESP
 .bss.prevTXBuff
                0x000064a2        0x1 depend_Debug_CSR102x_A06\ONESECOND.o
                0x000064a2                prevTXBuff
 .bss.thisTXBuff
                0x000064a3        0x1 depend_Debug_CSR102x_A06\ONESECOND.o
                0x000064a3                thisTXBuff
 .bss.uart_rx_buffer
                0x000064a4       0x10 depend_Debug_CSR102x_A06\UARTMCU.o
 .bss.uart_tx_buffer
                0x000064b4       0x10 depend_Debug_CSR102x_A06\UARTMCU.o
 .bss.uart_input
                0x000064c4        0x4 depend_Debug_CSR102x_A06\UARTMCU.o
 .bss.uart_busy
                0x000064c8        0x1 depend_Debug_CSR102x_A06\UARTMCU.o
 .bss.g_mtl_data
                0x000064c9      0x16e ..\mesh_common\mesh\libraries\CSR102x_A06\libcsrmesh.a(csr_mesh_mtl.o)
 .bss.mtl_rx_buffer
                0x00006637       0x1f ..\mesh_common\mesh\libraries\CSR102x_A06\libcsrmesh.a(csr_mesh_mtl.o)
 .bss.mtl_operational_buffer_2
                0x00006656       0x10 ..\mesh_common\mesh\libraries\CSR102x_A06\libcsrmesh.a(csr_mesh_mtl.o)
 .bss.g_ec_stack
                0x00006666      0x105 ..\mesh_common\mesh\libraries\CSR102x_A06\libcsrmesh.a(csr_mesh_ec_alloc.o)
 .bss.g_masp_data
                0x0000676b       0x52 ..\mesh_common\mesh\libraries\CSR102x_A06\libcsrmesh.a(csr_mesh_masp.o)
 .bss.g_mcp_data
                0x000067bd        0xe ..\mesh_common\mesh\libraries\CSR102x_A06\libcsrmesh.a(csr_mesh_mcp.o)
 .bss.sha256_hmac_priv_context
                0x000067cb       0x62 ..\mesh_common\mesh\libraries\CSR102x_A06\libcsrmesh.a(csr_mesh_sha256_hmac.o)
 .bss.tx_mesg_queue
                0x0000682d        0x2 ..\mesh_common\mesh\libraries\CSR102x_A06\libcsrmesh.a(csr_mesh_bearer_porting_util.o)
 .bss.event_data.2866.
                0x0000682f       0x4e ..\mesh_common\mesh\libraries\CSR102x_A06\libcsrmesh.a(csr1010_scheduler.o)
 .bss.event_data.2581.
                0x0000687d       0x4e ..\mesh_common\mesh\libraries\CSR102x_A06\libcsrmesh.a(csr1010_scheduler.o)
 .bss.unpacked_tx_buffer
                0x000068cb       0x1f ..\mesh_common\mesh\libraries\CSR102x_A06\libcsrmesh.a(csr1010_scheduler.o)
 .bss.g_scheduler_data
                0x000068ea       0x74 ..\mesh_common\mesh\libraries\CSR102x_A06\libcsrmesh.a(csr1010_scheduler.o)
 .bss.msg_params.2814.
                0x0000695e        0x3 ..\mesh_common\mesh\libraries\CSR102x_A06\libcsrmesh.a(csr_mesh_config_model.o)
 .bss.selfSignature.2800.
                0x00006961        0x8 ..\mesh_common\mesh\libraries\CSR102x_A06\libcsrmesh.a(csr_mesh_config_model.o)
 .bss.remoteSignature.2799.
                0x00006969        0x8 ..\mesh_common\mesh\libraries\CSR102x_A06\libcsrmesh.a(csr_mesh_config_model.o)
 .bss.le_params.2785.
                0x00006971        0xf ..\mesh_common\mesh\libraries\CSR102x_A06\libcsrmesh.a(csr_mesh_config_model.o)
 .bss.eventData.2784.
                0x00006980        0x3 ..\mesh_common\mesh\libraries\CSR102x_A06\libcsrmesh.a(csr_mesh_config_model.o)
 .bss.config_param.2783.
                0x00006983        0x5 ..\mesh_common\mesh\libraries\CSR102x_A06\libcsrmesh.a(csr_mesh_config_model.o)
 .bss.g_config_model_data
                0x00006988        0x9 ..\mesh_common\mesh\libraries\CSR102x_A06\libcsrmesh.a(csr_mesh_config_model.o)
 .bss.g_bearer_model_data
                0x00006991        0x7 ..\mesh_common\mesh\libraries\CSR102x_A06\libcsrmesh.a(csr_mesh_bearer_model.o)
 .bss.g_group_model_data
                0x00006998        0x7 ..\mesh_common\mesh\libraries\CSR102x_A06\libcsrmesh.a(csr_mesh_group_model.o)
 .bss.ext_data  0x0000699f        0x2 ..\mesh_common\mesh\libraries\CSR102x_A06\libextension_client.a(extension_client_exception.o)
 .bss.ext_data  0x000069a1        0x2 ..\mesh_common\mesh\libraries\CSR102x_A06\libextension_server.a(extension_server_exception.o)
 .bss.extended_direct_test_mode
                0x000069a3        0x1 C:\CSR102x_SDK-3.1.1\tools\lib\CSR102x_A06\libgatt_lib_ram.a(bletest.o)
 .bss.uart_read_tid
                0x000069a4        0x2 C:\CSR102x_SDK-3.1.1\tools\lib\CSR102x_A06\libgatt_lib_ram.a(patch_uart.o)
 .bss.read_first_req
                0x000069a6        0x1 C:\CSR102x_SDK-3.1.1\tools\lib\CSR102x_A06\libgatt_lib_ram.a(patch_uart.o)
 .bss.auto_rts_enabled
                0x000069a7        0x1 C:\CSR102x_SDK-3.1.1\tools\lib\CSR102x_A06\libgatt_lib_ram.a(patch_uart.o)
 .bss.rts_low   0x000069a8        0x1 C:\CSR102x_SDK-3.1.1\tools\lib\CSR102x_A06\libgatt_lib_ram.a(patch_uart.o)
 .bss.rts_high  0x000069a9        0x1 C:\CSR102x_SDK-3.1.1\tools\lib\CSR102x_A06\libgatt_lib_ram.a(patch_uart.o)
 .bss.app_read_request_len
                0x000069aa        0x1 C:\CSR102x_SDK-3.1.1\tools\lib\CSR102x_A06\libgatt_lib_ram.a(patch_uart.o)
 .bss.__PATCH__ZERO_
                0x000069ab        0x1 C:\CSR102x_SDK-3.1.1\tools\lib\CSR102x_A06\libgatt_lib_ram.a(sw_patch_ram.o)
                0x000069ab                __PATCH__ZERO_
 .bss.store_update_use_otp
                0x000069ac        0x1 C:\CSR102x_SDK-3.1.1\tools\lib\CSR102x_A06\libgatt_lib_ram.a(patch_store_update_msg_handler.o)
 .bss.xtal_wake_configured_in_patch
                0x000069ad        0x1 C:\CSR102x_SDK-3.1.1\tools\lib\CSR102x_A06\libgatt_lib_ram.a(patch_bleinit.o)
                0x000069ad                xtal_wake_configured_in_patch
 .bss.patched_halbleradio_instance_handlers
                0x000069ae       0x12 C:\CSR102x_SDK-3.1.1\tools\lib\CSR102x_A06\libgatt_lib_ram.a(patch_hal_bleradio.o)
 .bss.patch_bt_timer_id
                0x000069c0        0x1 C:\CSR102x_SDK-3.1.1\tools\lib\CSR102x_A06\libgatt_lib_ram.a(patch_george.o)
 .bss.lc_handle_clash_store.27771.
                0x000069c1        0x1 C:\CSR102x_SDK-3.1.1\tools\lib\CSR102x_A06\libgatt_lib_ram.a(patch_george_scheduler.o)
 .bss.direct_test_receive_ra
                0x000069c2        0x2 C:\CSR102x_SDK-3.1.1\tools\lib\CSR102x_A06\libgatt_lib_ram.a(patch_george_test.o)
 .bss.direct_test_transmit_ra
                0x000069c4        0x2 C:\CSR102x_SDK-3.1.1\tools\lib\CSR102x_A06\libgatt_lib_ram.a(patch_george_test.o)
 .bss.patch_rssi_dbm
                0x000069c6        0x1 C:\CSR102x_SDK-3.1.1\tools\lib\CSR102x_A06\libgatt_lib_ram.a(patch_george_rssi.o)
 .bss.george_calculate_rssi_ra
                0x000069c7        0x2 C:\CSR102x_SDK-3.1.1\tools\lib\CSR102x_A06\libgatt_lib_ram.a(patch_george_rssi.o)
 .bss.pacth_george_rssi_index
                0x000069c9        0x1 C:\CSR102x_SDK-3.1.1\tools\lib\CSR102x_A06\libgatt_lib_ram.a(patch_george_rssi.o)
 .bss.wd_timer_kick_carlos
                0x000069ca        0x2 C:\CSR102x_SDK-3.1.1\tools\lib\CSR102x_A06\libgatt_lib_ram.a(patch_wd.o)
 .bss.wd_kick_from_carlos
                0x000069cc        0x1 C:\CSR102x_SDK-3.1.1\tools\lib\CSR102x_A06\libgatt_lib_ram.a(patch_wd.o)
 .bss.profiling_enabled
                0x000069cd        0x1 C:\CSR102x_SDK-3.1.1\tools\lib\CSR102x_A06\libgatt_lib_ram.a(profiling.o)
                0x000069cd                profiling_enabled
 *(COMMON)
 COMMON         0x000069ce        0xb depend_Debug_CSR102x_A06\nvm_access.o
                0x000069ce                secureKeyInfo
 COMMON         0x000069d9      0x2a8 depend_Debug_CSR102x_A06\attention_model_handler.o
                0x000069d9                extension_model_groups
                0x00006b2d                lot_model_groups
 COMMON         0x00006c81        0x3 depend_Debug_CSR102x_A06\core_mesh_handler.o
                0x00006c81                g_cskey_flags
                0x00006c82                g_app_nvm_offset
                0x00006c83                g_app_nvm_fresh
 COMMON         0x00006c84        0x1 depend_Debug_CSR102x_A06\connection_handler.o
                0x00006c84                scanning_ongoing
 COMMON         0x00006c85       0x50 depend_Debug_CSR102x_A06\advertisement_handler.o
                0x00006c85                location_id
                0x00006c86                g_mesh_handler_data
                0x00006c90                last2digit
                0x00006c91                associationstate
                0x00006c92                ad_data
                0x00006cb1                advert_timer_value
                0x00006cb3                scan_rsp_data
                0x00006cd2                gatt_advert_tid
                0x00006cd3                last2digit1
                0x00006cd4                last2digit2
 COMMON         0x00006cd5        0x1 depend_Debug_CSR102x_A06\app_otau_handler.o
                0x00006cd5                old_version
 COMMON         0x00006cd6        0x7 depend_Debug_CSR102x_A06\app_otau_client_handler.o
                0x00006cd6                lot_announce_data
 COMMON         0x00006cdd        0x9 depend_Debug_CSR102x_A06\gap_service.o
                0x00006cdd                g_device_name
 COMMON         0x00006ce6       0x1e depend_Debug_CSR102x_A06\mesh_control_service.o
                0x00006ce6                g_mesh_svc_data
 COMMON         0x00006d04        0x1 depend_Debug_CSR102x_A06\gaia_otau.o
                0x00006d04                otastatus
 COMMON         0x00006d05       0x18 depend_Debug_CSR102x_A06\main_app.o
                0x00006d05                DATA
                0x00006d06                DataRX
                0x00006d15                cached_uuid
 COMMON         0x00006d1d       0x9f depend_Debug_CSR102x_A06\app_mesh_handler.o
                0x00006d1d                le_params
                0x00006d2c                tx_queue_buffer
 COMMON         0x00006dbc       0x8c depend_Debug_CSR102x_A06\uart_queue.o
                0x00006dbc                u_queue
 COMMON         0x00006e48        0x3 depend_Debug_CSR102x_A06\UARTMCU.o
                0x00006e48                user_read_callback
                0x00006e4a                data_num
 COMMON         0x00006e4b       0x7f ..\mesh_common\mesh\libraries\CSR102x_A06\libcsrmesh.a(csr_mesh.o)
                0x00006e4b                g_mesh_data
                0x00006e5b                g_mesh_context_data
 COMMON         0x00006eca        0x8 ..\mesh_common\mesh\libraries\CSR102x_A06\libcsrmesh.a(csr_mesh_masp_mcp_common.o)
                0x00006eca                g_device_hash
 COMMON         0x00006ed2       0x22 ..\mesh_common\mesh\libraries\CSR102x_A06\libcsrmesh.a(csr_mesh_mtl.o)
                0x00006ed2                mtl_operational_buffer
 COMMON         0x00006ef4       0x15 ..\mesh_common\mesh\libraries\CSR102x_A06\libcsrmesh.a(csr_mesh_bearer.o)
                0x00006ef4                g_le_bearer_data
                0x00006efe                g_gatt_bearer_data
 COMMON         0x00006f09        0x9 ..\mesh_common\mesh\libraries\CSR102x_A06\libextension_server.a(extension_model.o)
                0x00006f09                g_extension_model_data
 COMMON         0x00006f12        0x1 C:\CSR102x_SDK-3.1.1\tools\lib\CSR102x_A06\libgatt_lib_ram.a(patch_bg_ints.o)
                0x00006f12                patch_bg_ints
 COMMON         0x00006f13        0x1 C:\CSR102x_SDK-3.1.1\tools\lib\CSR102x_A06\libgatt_lib_ram.a(patch_george_interrupt.o)
                0x00006f13                clash_status
 COMMON         0x00006f14        0x4 C:\CSR102x_SDK-3.1.1\tools\lib\CSR102x_A06\libgatt_lib_ram.a(patch_george_rssi.o)
                0x00006f14                patch_last_antenna
 COMMON         0x00006f18        0x2 C:\CSR102x_SDK-3.1.1\tools\lib\CSR102x_A06\libgatt_lib_ram.a(profiling.o)
                0x00006f18                profiling_total_sleep_time
 COMMON         0x00006f1a        0x5 C:\CSR102x_SDK-3.1.1\tools\lib\CSR102x_A06\libgatt_lib_ram.a(patch_sysop_fosc_trim.o)
                0x00006f1a                fosc_freq_old_khz
                0x00006f1c                fosc_frequency_delta
                0x00006f1d                last_switch_val
 *(COMMON.*)
                0x00006f1f                DATA_APPBSS_END = .
                0x00006f1f                DATA_APPDATA_END = .
                0x00000002                DATA_TIMER_SIZE = (DATA_TIMER_END - DATA_TIMER_START)
                0x00000e04                APPBSS_SIZE = SIZEOF (.appbss)
                0x0000e5f9                APPINFO_DATA_ROMHEAP_START = DATA_ROMHEAP_START
                0x00000001                ASSERT (((DATA_APPDATA_END - DATA_APPDATA_START) < DATA_APPDATA_MAX_SIZE), Application uses too much data RAM.)
LOAD c:/csr102x_sdk-3.1.1/tools/bin/../lib/gcc/xap-local-xap/4.3.4\libgcc.a
OUTPUT(depend_Debug_CSR102x_A06\testdebug.elf elf32-xap2)

.debug_abbrev   0x00000000     0x244a
 .debug_abbrev  0x00000000       0x4b depend_Debug_CSR102x_A06\app_gatt_db.o
 .debug_abbrev  0x00000096       0x81 depend_Debug_CSR102x_A06\gaia_client.o
 .debug_abbrev  0x00000197       0xf6 depend_Debug_CSR102x_A06\gaia_client_service.o
 .debug_abbrev  0x00000383      0x101 depend_Debug_CSR102x_A06\gaia_otau_client.o
 .debug_abbrev  0x00000584       0xef depend_Debug_CSR102x_A06\conn_param_update.o
 .debug_abbrev  0x00000762       0xef depend_Debug_CSR102x_A06\nvm_access.o
 .debug_abbrev  0x00000940      0x100 depend_Debug_CSR102x_A06\cm_common.o
 .debug_abbrev  0x00000b40      0x133 depend_Debug_CSR102x_A06\cm_hal.o
 .debug_abbrev  0x00000da5      0x11a depend_Debug_CSR102x_A06\cm_private.o
 .debug_abbrev  0x00000fd8      0x11c depend_Debug_CSR102x_A06\cm_security.o
 .debug_abbrev  0x0000120f       0xfc depend_Debug_CSR102x_A06\cm_server.o
 .debug_abbrev  0x00001407      0x106 depend_Debug_CSR102x_A06\cm_observer.o
 .debug_abbrev  0x00001613      0x125 depend_Debug_CSR102x_A06\cm_peripheral.o
 .debug_abbrev  0x0000185d      0x126 depend_Debug_CSR102x_A06\cm_central.o
 .debug_abbrev  0x00001aa9      0x11c depend_Debug_CSR102x_A06\cm_client.o
 .debug_abbrev  0x00001ce1       0x55 depend_Debug_CSR102x_A06\battery_hw.o
 .debug_abbrev  0x00001d8b       0x1a depend_Debug_CSR102x_A06\fast_pwm.o
 .debug_abbrev  0x00001dbe       0xbc depend_Debug_CSR102x_A06\iot_hw.o
 .debug_abbrev  0x00001f36       0xb0 depend_Debug_CSR102x_A06\csr_mesh_ps_ifce.o
 .debug_abbrev  0x00002095       0x32 depend_Debug_CSR102x_A06\attention_model_handler.o
 .debug_abbrev  0x000020f8       0x1a depend_Debug_CSR102x_A06\battery_model_handler.o
 .debug_abbrev  0x0000212b       0xe6 depend_Debug_CSR102x_A06\core_mesh_handler.o
 .debug_abbrev  0x000022f7       0x32 depend_Debug_CSR102x_A06\data_model_handler.o
 .debug_abbrev  0x0000235a       0x29 depend_Debug_CSR102x_A06\light_model_handler.o
 .debug_abbrev  0x000023ab       0x32 depend_Debug_CSR102x_A06\power_model_handler.o
 .debug_abbrev  0x0000240e       0x51 depend_Debug_CSR102x_A06\app_util.o
 .debug_abbrev  0x000024af      0x11f depend_Debug_CSR102x_A06\connection_handler.o
 .debug_abbrev  0x000026ec       0xe4 depend_Debug_CSR102x_A06\advertisement_handler.o
 .debug_abbrev  0x000028b3       0x3a depend_Debug_CSR102x_A06\time_model_handler.o
 .debug_abbrev  0x00002927       0x3a depend_Debug_CSR102x_A06\action_model_handler.o
 .debug_abbrev  0x0000299b       0x31 depend_Debug_CSR102x_A06\largeobjecttransfer_model_handler.o
 .debug_abbrev  0x000029fd       0x3a depend_Debug_CSR102x_A06\asset_model_handler.o
 .debug_abbrev  0x00002a71       0x3a depend_Debug_CSR102x_A06\tracker_model_handler.o
 .debug_abbrev  0x00002ae5       0xd2 depend_Debug_CSR102x_A06\app_otau_handler.o
 .debug_abbrev  0x00002c88       0x83 depend_Debug_CSR102x_A06\scan_handler.o
 .debug_abbrev  0x00002d8e      0x10b depend_Debug_CSR102x_A06\app_otau_client_handler.o
 .debug_abbrev  0x00002fa4       0xe0 depend_Debug_CSR102x_A06\extension_model_handler.o
 .debug_abbrev  0x00003164      0x102 depend_Debug_CSR102x_A06\gap_service.o
 .debug_abbrev  0x00003367       0xe9 depend_Debug_CSR102x_A06\gatt_service.o
 .debug_abbrev  0x00003539       0xf9 depend_Debug_CSR102x_A06\mesh_control_service.o
 .debug_abbrev  0x0000372a       0x5f depend_Debug_CSR102x_A06\byte_utils.o
 .debug_abbrev  0x000037e8       0xf2 depend_Debug_CSR102x_A06\gaia.o
 .debug_abbrev  0x000039cc      0x130 depend_Debug_CSR102x_A06\gaia_otau.o
 .debug_abbrev  0x00003c2b       0xea depend_Debug_CSR102x_A06\gaia_service.o
 .debug_abbrev  0x00003dff      0x111 depend_Debug_CSR102x_A06\main_app.o
 .debug_abbrev  0x00004021      0x109 depend_Debug_CSR102x_A06\app_mesh_handler.o
 .debug_abbrev  0x00004233       0xa6 depend_Debug_CSR102x_A06\app_hw.o
 .debug_abbrev  0x0000437e       0xd2 depend_Debug_CSR102x_A06\ONESECOND.o
 .debug_abbrev  0x00004521       0xd4 depend_Debug_CSR102x_A06\uart_queue.o
 .debug_abbrev  0x000046c8       0xe6 depend_Debug_CSR102x_A06\UARTMCU.o

.debug_info     0x00000000    0x1a238
 .debug_info    0x00000000       0x69 depend_Debug_CSR102x_A06\app_gatt_db.o
 .debug_info    0x000000d2      0x185 depend_Debug_CSR102x_A06\gaia_client.o
 .debug_info    0x000003dc      0xd29 depend_Debug_CSR102x_A06\gaia_client_service.o
 .debug_info    0x00001e2e      0x9b9 depend_Debug_CSR102x_A06\gaia_otau_client.o
 .debug_info    0x000031a0      0xac6 depend_Debug_CSR102x_A06\conn_param_update.o
 .debug_info    0x0000472b      0xd7c depend_Debug_CSR102x_A06\nvm_access.o
 .debug_info    0x00006223     0x114b depend_Debug_CSR102x_A06\cm_common.o
 .debug_info    0x000084b8     0x1e56 depend_Debug_CSR102x_A06\cm_hal.o
 .debug_info    0x0000c164     0x17e9 depend_Debug_CSR102x_A06\cm_private.o
 .debug_info    0x0000f136     0x1855 depend_Debug_CSR102x_A06\cm_security.o
 .debug_info    0x000121df     0x1380 depend_Debug_CSR102x_A06\cm_server.o
 .debug_info    0x000148de     0x108c depend_Debug_CSR102x_A06\cm_observer.o
 .debug_info    0x000169f5     0x137e depend_Debug_CSR102x_A06\cm_peripheral.o
 .debug_info    0x000190f0     0x12d8 depend_Debug_CSR102x_A06\cm_central.o
 .debug_info    0x0001b69f     0x1702 depend_Debug_CSR102x_A06\cm_client.o
 .debug_info    0x0001e4a3       0xcd depend_Debug_CSR102x_A06\battery_hw.o
 .debug_info    0x0001e63d       0x38 depend_Debug_CSR102x_A06\fast_pwm.o
 .debug_info    0x0001e6ac      0x24f depend_Debug_CSR102x_A06\iot_hw.o
 .debug_info    0x0001eb49      0x1d3 depend_Debug_CSR102x_A06\csr_mesh_ps_ifce.o
 .debug_info    0x0001eeee       0x5b depend_Debug_CSR102x_A06\attention_model_handler.o
 .debug_info    0x0001efa4       0x3b depend_Debug_CSR102x_A06\battery_model_handler.o
 .debug_info    0x0001f01a      0x497 depend_Debug_CSR102x_A06\core_mesh_handler.o
 .debug_info    0x0001f947       0x5b depend_Debug_CSR102x_A06\data_model_handler.o
 .debug_info    0x0001f9fd       0x63 depend_Debug_CSR102x_A06\light_model_handler.o
 .debug_info    0x0001fac2       0x5b depend_Debug_CSR102x_A06\power_model_handler.o
 .debug_info    0x0001fb78       0xae depend_Debug_CSR102x_A06\app_util.o
 .debug_info    0x0001fcd4     0x105f depend_Debug_CSR102x_A06\connection_handler.o
 .debug_info    0x00021d92      0x616 depend_Debug_CSR102x_A06\advertisement_handler.o
 .debug_info    0x000229bd       0x7d depend_Debug_CSR102x_A06\time_model_handler.o
 .debug_info    0x00022ab7       0x7d depend_Debug_CSR102x_A06\action_model_handler.o
 .debug_info    0x00022bb1       0x6c depend_Debug_CSR102x_A06\largeobjecttransfer_model_handler.o
 .debug_info    0x00022c88       0x7d depend_Debug_CSR102x_A06\asset_model_handler.o
 .debug_info    0x00022d82       0x7d depend_Debug_CSR102x_A06\tracker_model_handler.o
 .debug_info    0x00022e7c      0x5e0 depend_Debug_CSR102x_A06\app_otau_handler.o
 .debug_info    0x00023a3b      0x1bb depend_Debug_CSR102x_A06\scan_handler.o
 .debug_info    0x00023db0     0x10f4 depend_Debug_CSR102x_A06\app_otau_client_handler.o
 .debug_info    0x00025f97      0x56f depend_Debug_CSR102x_A06\extension_model_handler.o
 .debug_info    0x00026a75      0xb27 depend_Debug_CSR102x_A06\gap_service.o
 .debug_info    0x000280c3      0xa8f depend_Debug_CSR102x_A06\gatt_service.o
 .debug_info    0x000295e0      0xb17 depend_Debug_CSR102x_A06\mesh_control_service.o
 .debug_info    0x0002ac0d      0x1cd depend_Debug_CSR102x_A06\byte_utils.o
 .debug_info    0x0002afa6      0x4f5 depend_Debug_CSR102x_A06\gaia.o
 .debug_info    0x0002b98f     0x13ef depend_Debug_CSR102x_A06\gaia_otau.o
 .debug_info    0x0002e16d      0xac1 depend_Debug_CSR102x_A06\gaia_service.o
 .debug_info    0x0002f6ef      0xf3a depend_Debug_CSR102x_A06\main_app.o
 .debug_info    0x00031563      0x5f4 depend_Debug_CSR102x_A06\app_mesh_handler.o
 .debug_info    0x0003214a      0x18c depend_Debug_CSR102x_A06\app_hw.o
 .debug_info    0x00032461      0x3d9 depend_Debug_CSR102x_A06\ONESECOND.o
 .debug_info    0x00032c13      0x1ad depend_Debug_CSR102x_A06\uart_queue.o
 .debug_info    0x00032f6d      0xa81 depend_Debug_CSR102x_A06\UARTMCU.o

.debug_line     0x00000000     0x7d19
 .debug_line    0x00000000       0x5c depend_Debug_CSR102x_A06\app_gatt_db.o
 .debug_line    0x000000b8      0x1ac depend_Debug_CSR102x_A06\gaia_client.o
 .debug_line    0x00000410      0x409 depend_Debug_CSR102x_A06\gaia_client_service.o
 .debug_line    0x00000c22      0x58e depend_Debug_CSR102x_A06\gaia_otau_client.o
 .debug_line    0x0000173e      0x2d5 depend_Debug_CSR102x_A06\conn_param_update.o
 .debug_line    0x00001ce8      0x29b depend_Debug_CSR102x_A06\nvm_access.o
 .debug_line    0x0000221e      0x42c depend_Debug_CSR102x_A06\cm_common.o
 .debug_line    0x00002a76      0x608 depend_Debug_CSR102x_A06\cm_hal.o
 .debug_line    0x00003686      0x510 depend_Debug_CSR102x_A06\cm_private.o
 .debug_line    0x000040a6      0x5c0 depend_Debug_CSR102x_A06\cm_security.o
 .debug_line    0x00004c26      0x2a0 depend_Debug_CSR102x_A06\cm_server.o
 .debug_line    0x00005166      0x1d6 depend_Debug_CSR102x_A06\cm_observer.o
 .debug_line    0x00005511      0x433 depend_Debug_CSR102x_A06\cm_peripheral.o
 .debug_line    0x00005d76      0x382 depend_Debug_CSR102x_A06\cm_central.o
 .debug_line    0x00006479      0x642 depend_Debug_CSR102x_A06\cm_client.o
 .debug_line    0x000070fc       0xf2 depend_Debug_CSR102x_A06\battery_hw.o
 .debug_line    0x000072e0        0xf depend_Debug_CSR102x_A06\fast_pwm.o
 .debug_line    0x000072fd      0x29e depend_Debug_CSR102x_A06\iot_hw.o
 .debug_line    0x00007839      0x16f depend_Debug_CSR102x_A06\csr_mesh_ps_ifce.o
 .debug_line    0x00007b17       0x3c depend_Debug_CSR102x_A06\attention_model_handler.o
 .debug_line    0x00007b8e        0xf depend_Debug_CSR102x_A06\battery_model_handler.o
 .debug_line    0x00007bab      0x2b5 depend_Debug_CSR102x_A06\core_mesh_handler.o
 .debug_line    0x00008114       0x3c depend_Debug_CSR102x_A06\data_model_handler.o
 .debug_line    0x0000818b       0x38 depend_Debug_CSR102x_A06\light_model_handler.o
 .debug_line    0x000081fa       0x3c depend_Debug_CSR102x_A06\power_model_handler.o
 .debug_line    0x00008271       0x6f depend_Debug_CSR102x_A06\app_util.o
 .debug_line    0x0000834f      0x666 depend_Debug_CSR102x_A06\connection_handler.o
 .debug_line    0x0000901a      0x319 depend_Debug_CSR102x_A06\advertisement_handler.o
 .debug_line    0x0000964b       0x44 depend_Debug_CSR102x_A06\time_model_handler.o
 .debug_line    0x000096d2       0x44 depend_Debug_CSR102x_A06\action_model_handler.o
 .debug_line    0x00009759       0x5b depend_Debug_CSR102x_A06\largeobjecttransfer_model_handler.o
 .debug_line    0x0000980e       0x44 depend_Debug_CSR102x_A06\asset_model_handler.o
 .debug_line    0x00009895       0x44 depend_Debug_CSR102x_A06\tracker_model_handler.o
 .debug_line    0x0000991c      0x36e depend_Debug_CSR102x_A06\app_otau_handler.o
 .debug_line    0x00009ff7      0x169 depend_Debug_CSR102x_A06\scan_handler.o
 .debug_line    0x0000a2c8      0x631 depend_Debug_CSR102x_A06\app_otau_client_handler.o
 .debug_line    0x0000af29      0x2ce depend_Debug_CSR102x_A06\extension_model_handler.o
 .debug_line    0x0000b4c5      0x24c depend_Debug_CSR102x_A06\gap_service.o
 .debug_line    0x0000b95c      0x257 depend_Debug_CSR102x_A06\gatt_service.o
 .debug_line    0x0000be0a      0x25e depend_Debug_CSR102x_A06\mesh_control_service.o
 .debug_line    0x0000c2c6      0x17b depend_Debug_CSR102x_A06\byte_utils.o
 .debug_line    0x0000c5bb      0x2c1 depend_Debug_CSR102x_A06\gaia.o
 .debug_line    0x0000cb3c      0x890 depend_Debug_CSR102x_A06\gaia_otau.o
 .debug_line    0x0000dc5c      0x22b depend_Debug_CSR102x_A06\gaia_service.o
 .debug_line    0x0000e0b1      0x2f9 depend_Debug_CSR102x_A06\main_app.o
 .debug_line    0x0000e6a2      0x415 depend_Debug_CSR102x_A06\app_mesh_handler.o
 .debug_line    0x0000eecc      0x109 depend_Debug_CSR102x_A06\app_hw.o
 .debug_line    0x0000f0dd      0x1df depend_Debug_CSR102x_A06\ONESECOND.o
 .debug_line    0x0000f49b      0x1ae depend_Debug_CSR102x_A06\uart_queue.o
 .debug_line    0x0000f7f6      0x11e depend_Debug_CSR102x_A06\UARTMCU.o

.debug_frame    0x00000000     0x1ac8
 .debug_frame   0x00000000       0x14 depend_Debug_CSR102x_A06\app_gatt_db.o
 .debug_frame   0x00000028       0x5c depend_Debug_CSR102x_A06\gaia_client.o
 .debug_frame   0x000000e0       0xe0 depend_Debug_CSR102x_A06\gaia_client_service.o
 .debug_frame   0x000002a0      0x156 depend_Debug_CSR102x_A06\gaia_otau_client.o
 .debug_frame   0x0000054c       0xb0 depend_Debug_CSR102x_A06\conn_param_update.o
 .debug_frame   0x000006ac       0x70 depend_Debug_CSR102x_A06\nvm_access.o
 .debug_frame   0x0000078c      0x140 depend_Debug_CSR102x_A06\cm_common.o
 .debug_frame   0x00000a0c      0x1e8 depend_Debug_CSR102x_A06\cm_hal.o
 .debug_frame   0x00000ddc      0x160 depend_Debug_CSR102x_A06\cm_private.o
 .debug_frame   0x0000109c      0x160 depend_Debug_CSR102x_A06\cm_security.o
 .debug_frame   0x0000135c       0xb0 depend_Debug_CSR102x_A06\cm_server.o
 .debug_frame   0x000014bc       0x6c depend_Debug_CSR102x_A06\cm_observer.o
 .debug_frame   0x00001594       0xd8 depend_Debug_CSR102x_A06\cm_peripheral.o
 .debug_frame   0x00001744       0xc8 depend_Debug_CSR102x_A06\cm_central.o
 .debug_frame   0x000018d4      0x17c depend_Debug_CSR102x_A06\cm_client.o
 .debug_frame   0x00001bcc       0x38 depend_Debug_CSR102x_A06\battery_hw.o
 .debug_frame   0x00001c3c       0x68 depend_Debug_CSR102x_A06\iot_hw.o
 .debug_frame   0x00001d0c       0x84 depend_Debug_CSR102x_A06\csr_mesh_ps_ifce.o
 .debug_frame   0x00001e14       0xa4 depend_Debug_CSR102x_A06\core_mesh_handler.o
 .debug_frame   0x00001f5c       0x14 depend_Debug_CSR102x_A06\app_util.o
 .debug_frame   0x00001f84      0x144 depend_Debug_CSR102x_A06\connection_handler.o
 .debug_frame   0x0000220c       0x5c depend_Debug_CSR102x_A06\advertisement_handler.o
 .debug_frame   0x000022c4       0x80 depend_Debug_CSR102x_A06\app_otau_handler.o
 .debug_frame   0x000023c4       0x2c depend_Debug_CSR102x_A06\scan_handler.o
 .debug_frame   0x0000241c      0x102 depend_Debug_CSR102x_A06\app_otau_client_handler.o
 .debug_frame   0x00002620       0x44 depend_Debug_CSR102x_A06\extension_model_handler.o
 .debug_frame   0x000026a8       0x80 depend_Debug_CSR102x_A06\gap_service.o
 .debug_frame   0x000027a8       0x80 depend_Debug_CSR102x_A06\gatt_service.o
 .debug_frame   0x000028a8       0x4c depend_Debug_CSR102x_A06\mesh_control_service.o
 .debug_frame   0x00002940       0x80 depend_Debug_CSR102x_A06\byte_utils.o
 .debug_frame   0x00002a40       0x90 depend_Debug_CSR102x_A06\gaia.o
 .debug_frame   0x00002b60      0x1b0 depend_Debug_CSR102x_A06\gaia_otau.o
 .debug_frame   0x00002ec0       0x74 depend_Debug_CSR102x_A06\gaia_service.o
 .debug_frame   0x00002fa8       0x80 depend_Debug_CSR102x_A06\main_app.o
 .debug_frame   0x000030a8       0xd4 depend_Debug_CSR102x_A06\app_mesh_handler.o
 .debug_frame   0x00003250       0x50 depend_Debug_CSR102x_A06\app_hw.o
 .debug_frame   0x000032f0       0x80 depend_Debug_CSR102x_A06\ONESECOND.o
 .debug_frame   0x000033f0       0x8c depend_Debug_CSR102x_A06\uart_queue.o
 .debug_frame   0x00003508       0x44 depend_Debug_CSR102x_A06\UARTMCU.o

.debug_loc      0x00000000     0x2013
 .debug_loc     0x00000000       0x10 depend_Debug_CSR102x_A06\app_gatt_db.o
 .debug_loc     0x0000001f       0x6d depend_Debug_CSR102x_A06\gaia_client.o
 .debug_loc     0x000000f8      0x117 depend_Debug_CSR102x_A06\gaia_client_service.o
 .debug_loc     0x00000326      0x1a9 depend_Debug_CSR102x_A06\gaia_otau_client.o
 .debug_loc     0x00000677       0xd9 depend_Debug_CSR102x_A06\conn_param_update.o
 .debug_loc     0x00000829       0x7c depend_Debug_CSR102x_A06\nvm_access.o
 .debug_loc     0x00000921      0x193 depend_Debug_CSR102x_A06\cm_common.o
 .debug_loc     0x00000c47      0x26c depend_Debug_CSR102x_A06\cm_hal.o
 .debug_loc     0x0000111f      0x1b2 depend_Debug_CSR102x_A06\cm_private.o
 .debug_loc     0x00001483      0x1b3 depend_Debug_CSR102x_A06\cm_security.o
 .debug_loc     0x000017e8       0xd9 depend_Debug_CSR102x_A06\cm_server.o
 .debug_loc     0x0000199a       0x6d depend_Debug_CSR102x_A06\cm_observer.o
 .debug_loc     0x00001a73       0xf8 depend_Debug_CSR102x_A06\cm_peripheral.o
 .debug_loc     0x00001c63       0xd9 depend_Debug_CSR102x_A06\cm_central.o
 .debug_loc     0x00001e15      0x1e1 depend_Debug_CSR102x_A06\cm_client.o
 .debug_loc     0x000021d6       0x3e depend_Debug_CSR102x_A06\battery_hw.o
 .debug_loc     0x00002252       0x7c depend_Debug_CSR102x_A06\iot_hw.o
 .debug_loc     0x0000234a       0x8c depend_Debug_CSR102x_A06\csr_mesh_ps_ifce.o
 .debug_loc     0x00002461       0xca depend_Debug_CSR102x_A06\core_mesh_handler.o
 .debug_loc     0x000025f4       0x10 depend_Debug_CSR102x_A06\app_util.o
 .debug_loc     0x00002613      0x165 depend_Debug_CSR102x_A06\connection_handler.o
 .debug_loc     0x000028dc       0x6d depend_Debug_CSR102x_A06\advertisement_handler.o
 .debug_loc     0x000029b6       0x9b depend_Debug_CSR102x_A06\app_otau_handler.o
 .debug_loc     0x00002aec       0x2f depend_Debug_CSR102x_A06\scan_handler.o
 .debug_loc     0x00002b49      0x13d depend_Debug_CSR102x_A06\app_otau_client_handler.o
 .debug_loc     0x00002dc2       0x4e depend_Debug_CSR102x_A06\extension_model_handler.o
 .debug_loc     0x00002e5e       0x9b depend_Debug_CSR102x_A06\gap_service.o
 .debug_loc     0x00002f94       0x9b depend_Debug_CSR102x_A06\gatt_service.o
 .debug_loc     0x000030ca       0x4e depend_Debug_CSR102x_A06\mesh_control_service.o
 .debug_loc     0x00003165       0x9b depend_Debug_CSR102x_A06\byte_utils.o
 .debug_loc     0x0000329b       0x9b depend_Debug_CSR102x_A06\gaia.o
 .debug_loc     0x000033d1      0x22b depend_Debug_CSR102x_A06\gaia_otau.o
 .debug_loc     0x00003827       0x8c depend_Debug_CSR102x_A06\gaia_service.o
 .debug_loc     0x0000393e       0x9b depend_Debug_CSR102x_A06\main_app.o
 .debug_loc     0x00003a74      0x108 depend_Debug_CSR102x_A06\app_mesh_handler.o
 .debug_loc     0x00003c83       0x5d depend_Debug_CSR102x_A06\app_hw.o
 .debug_loc     0x00003d3d       0x9b depend_Debug_CSR102x_A06\ONESECOND.o
 .debug_loc     0x00003e73       0x8c depend_Debug_CSR102x_A06\uart_queue.o
 .debug_loc     0x00003f8a       0x4e depend_Debug_CSR102x_A06\UARTMCU.o

.debug_pubnames
                0x00000000     0x17de
 .debug_pubnames
                0x00000000       0x1c depend_Debug_CSR102x_A06\app_gatt_db.o
 .debug_pubnames
                0x00000037       0x5a depend_Debug_CSR102x_A06\gaia_client.o
 .debug_pubnames
                0x000000eb       0x51 depend_Debug_CSR102x_A06\gaia_client_service.o
 .debug_pubnames
                0x0000018c       0xdd depend_Debug_CSR102x_A06\gaia_otau_client.o
 .debug_pubnames
                0x00000345       0x62 depend_Debug_CSR102x_A06\conn_param_update.o
 .debug_pubnames
                0x00000409       0x46 depend_Debug_CSR102x_A06\nvm_access.o
 .debug_pubnames
                0x00000494      0x136 depend_Debug_CSR102x_A06\cm_common.o
 .debug_pubnames
                0x00000700      0x1e6 depend_Debug_CSR102x_A06\cm_hal.o
 .debug_pubnames
                0x00000acc       0xa0 depend_Debug_CSR102x_A06\cm_private.o
 .debug_pubnames
                0x00000c0c       0xe3 depend_Debug_CSR102x_A06\cm_security.o
 .debug_pubnames
                0x00000dd2       0x90 depend_Debug_CSR102x_A06\cm_server.o
 .debug_pubnames
                0x00000ef1       0x88 depend_Debug_CSR102x_A06\cm_observer.o
 .debug_pubnames
                0x00001000       0x92 depend_Debug_CSR102x_A06\cm_peripheral.o
 .debug_pubnames
                0x00001124       0xa7 depend_Debug_CSR102x_A06\cm_central.o
 .debug_pubnames
                0x00001272       0x99 depend_Debug_CSR102x_A06\cm_client.o
 .debug_pubnames
                0x000013a4       0x3a depend_Debug_CSR102x_A06\battery_hw.o
 .debug_pubnames
                0x00001417       0x74 depend_Debug_CSR102x_A06\iot_hw.o
 .debug_pubnames
                0x000014ff       0x80 depend_Debug_CSR102x_A06\csr_mesh_ps_ifce.o
 .debug_pubnames
                0x000015ff       0x21 depend_Debug_CSR102x_A06\attention_model_handler.o
 .debug_pubnames
                0x00001641       0xb3 depend_Debug_CSR102x_A06\core_mesh_handler.o
 .debug_pubnames
                0x000017a7       0x21 depend_Debug_CSR102x_A06\data_model_handler.o
 .debug_pubnames
                0x000017e9       0x27 depend_Debug_CSR102x_A06\light_model_handler.o
 .debug_pubnames
                0x00001836       0x21 depend_Debug_CSR102x_A06\power_model_handler.o
 .debug_pubnames
                0x00001878       0x29 depend_Debug_CSR102x_A06\app_util.o
 .debug_pubnames
                0x000018ca      0x106 depend_Debug_CSR102x_A06\connection_handler.o
 .debug_pubnames
                0x00001ad5       0xa9 depend_Debug_CSR102x_A06\advertisement_handler.o
 .debug_pubnames
                0x00001c26       0x3f depend_Debug_CSR102x_A06\time_model_handler.o
 .debug_pubnames
                0x00001ca3       0x3f depend_Debug_CSR102x_A06\action_model_handler.o
 .debug_pubnames
                0x00001d20       0x31 depend_Debug_CSR102x_A06\largeobjecttransfer_model_handler.o
 .debug_pubnames
                0x00001d82       0x3f depend_Debug_CSR102x_A06\asset_model_handler.o
 .debug_pubnames
                0x00001dff       0x3f depend_Debug_CSR102x_A06\tracker_model_handler.o
 .debug_pubnames
                0x00001e7c       0x4a depend_Debug_CSR102x_A06\app_otau_handler.o
 .debug_pubnames
                0x00001f0f       0x31 depend_Debug_CSR102x_A06\scan_handler.o
 .debug_pubnames
                0x00001f70       0xd0 depend_Debug_CSR102x_A06\app_otau_client_handler.o
 .debug_pubnames
                0x0000210f       0xa8 depend_Debug_CSR102x_A06\extension_model_handler.o
 .debug_pubnames
                0x0000225f       0x5a depend_Debug_CSR102x_A06\gap_service.o
 .debug_pubnames
                0x00002312       0x35 depend_Debug_CSR102x_A06\gatt_service.o
 .debug_pubnames
                0x0000237b       0x42 depend_Debug_CSR102x_A06\mesh_control_service.o
 .debug_pubnames
                0x000023ff       0x72 depend_Debug_CSR102x_A06\byte_utils.o
 .debug_pubnames
                0x000024e3       0x4d depend_Debug_CSR102x_A06\gaia.o
 .debug_pubnames
                0x0000257c       0x95 depend_Debug_CSR102x_A06\gaia_otau.o
 .debug_pubnames
                0x000026a5       0x23 depend_Debug_CSR102x_A06\gaia_service.o
 .debug_pubnames
                0x000026ea       0xd7 depend_Debug_CSR102x_A06\main_app.o
 .debug_pubnames
                0x00002897      0x113 depend_Debug_CSR102x_A06\app_mesh_handler.o
 .debug_pubnames
                0x00002abd       0x6f depend_Debug_CSR102x_A06\app_hw.o
 .debug_pubnames
                0x00002b9b      0x118 depend_Debug_CSR102x_A06\ONESECOND.o
 .debug_pubnames
                0x00002dcb       0x8a depend_Debug_CSR102x_A06\uart_queue.o
 .debug_pubnames
                0x00002ede       0x6f depend_Debug_CSR102x_A06\UARTMCU.o

.debug_aranges  0x00000000      0xa78
 .debug_aranges
                0x00000000       0x10 depend_Debug_CSR102x_A06\app_gatt_db.o
 .debug_aranges
                0x00000020       0x28 depend_Debug_CSR102x_A06\gaia_client.o
 .debug_aranges
                0x00000070       0x54 depend_Debug_CSR102x_A06\gaia_client_service.o
 .debug_aranges
                0x00000118       0x7c depend_Debug_CSR102x_A06\gaia_otau_client.o
 .debug_aranges
                0x00000210       0x44 depend_Debug_CSR102x_A06\conn_param_update.o
 .debug_aranges
                0x00000298       0x30 depend_Debug_CSR102x_A06\nvm_access.o
 .debug_aranges
                0x000002f8       0x74 depend_Debug_CSR102x_A06\cm_common.o
 .debug_aranges
                0x000003e0       0xac depend_Debug_CSR102x_A06\cm_hal.o
 .debug_aranges
                0x00000538       0x80 depend_Debug_CSR102x_A06\cm_private.o
 .debug_aranges
                0x00000638       0x80 depend_Debug_CSR102x_A06\cm_security.o
 .debug_aranges
                0x00000738       0x44 depend_Debug_CSR102x_A06\cm_server.o
 .debug_aranges
                0x000007c0       0x30 depend_Debug_CSR102x_A06\cm_observer.o
 .debug_aranges
                0x00000820       0x54 depend_Debug_CSR102x_A06\cm_peripheral.o
 .debug_aranges
                0x000008c8       0x50 depend_Debug_CSR102x_A06\cm_central.o
 .debug_aranges
                0x00000968       0x88 depend_Debug_CSR102x_A06\cm_client.o
 .debug_aranges
                0x00000a78       0x1c depend_Debug_CSR102x_A06\battery_hw.o
 .debug_aranges
                0x00000ab0       0x2c depend_Debug_CSR102x_A06\iot_hw.o
 .debug_aranges
                0x00000b08       0x38 depend_Debug_CSR102x_A06\csr_mesh_ps_ifce.o
 .debug_aranges
                0x00000b78       0x40 depend_Debug_CSR102x_A06\core_mesh_handler.o
 .debug_aranges
                0x00000bf8       0x10 depend_Debug_CSR102x_A06\app_util.o
 .debug_aranges
                0x00000c18       0x7c depend_Debug_CSR102x_A06\connection_handler.o
 .debug_aranges
                0x00000d10       0x28 depend_Debug_CSR102x_A06\advertisement_handler.o
 .debug_aranges
                0x00000d60       0x34 depend_Debug_CSR102x_A06\app_otau_handler.o
 .debug_aranges
                0x00000dc8       0x18 depend_Debug_CSR102x_A06\scan_handler.o
 .debug_aranges
                0x00000df8       0x60 depend_Debug_CSR102x_A06\app_otau_client_handler.o
 .debug_aranges
                0x00000eb8       0x20 depend_Debug_CSR102x_A06\extension_model_handler.o
 .debug_aranges
                0x00000ef8       0x34 depend_Debug_CSR102x_A06\gap_service.o
 .debug_aranges
                0x00000f60       0x34 depend_Debug_CSR102x_A06\gatt_service.o
 .debug_aranges
                0x00000fc8       0x24 depend_Debug_CSR102x_A06\mesh_control_service.o
 .debug_aranges
                0x00001010       0x34 depend_Debug_CSR102x_A06\byte_utils.o
 .debug_aranges
                0x00001078       0x3c depend_Debug_CSR102x_A06\gaia.o
 .debug_aranges
                0x000010f0       0x98 depend_Debug_CSR102x_A06\gaia_otau.o
 .debug_aranges
                0x00001220       0x30 depend_Debug_CSR102x_A06\gaia_service.o
 .debug_aranges
                0x00001280       0x34 depend_Debug_CSR102x_A06\main_app.o
 .debug_aranges
                0x000012e8       0x50 depend_Debug_CSR102x_A06\app_mesh_handler.o
 .debug_aranges
                0x00001388       0x24 depend_Debug_CSR102x_A06\app_hw.o
 .debug_aranges
                0x000013d0       0x34 depend_Debug_CSR102x_A06\ONESECOND.o
 .debug_aranges
                0x00001438       0x3c depend_Debug_CSR102x_A06\uart_queue.o
 .debug_aranges
                0x000014b0       0x20 depend_Debug_CSR102x_A06\UARTMCU.o

.debug_ranges   0x00000000      0x9dc
 .debug_ranges  0x00000000        0xc depend_Debug_CSR102x_A06\app_gatt_db.o
 .debug_ranges  0x00000018       0x24 depend_Debug_CSR102x_A06\gaia_client.o
 .debug_ranges  0x00000060       0x50 depend_Debug_CSR102x_A06\gaia_client_service.o
 .debug_ranges  0x00000100       0x78 depend_Debug_CSR102x_A06\gaia_otau_client.o
 .debug_ranges  0x000001f0       0x40 depend_Debug_CSR102x_A06\conn_param_update.o
 .debug_ranges  0x00000270       0x2c depend_Debug_CSR102x_A06\nvm_access.o
 .debug_ranges  0x000002c8       0x70 depend_Debug_CSR102x_A06\cm_common.o
 .debug_ranges  0x000003a8       0xa8 depend_Debug_CSR102x_A06\cm_hal.o
 .debug_ranges  0x000004f8       0x7c depend_Debug_CSR102x_A06\cm_private.o
 .debug_ranges  0x000005f0       0x7c depend_Debug_CSR102x_A06\cm_security.o
 .debug_ranges  0x000006e8       0x40 depend_Debug_CSR102x_A06\cm_server.o
 .debug_ranges  0x00000768       0x2c depend_Debug_CSR102x_A06\cm_observer.o
 .debug_ranges  0x000007c0       0x50 depend_Debug_CSR102x_A06\cm_peripheral.o
 .debug_ranges  0x00000860       0x4c depend_Debug_CSR102x_A06\cm_central.o
 .debug_ranges  0x000008f8       0x84 depend_Debug_CSR102x_A06\cm_client.o
 .debug_ranges  0x00000a00       0x18 depend_Debug_CSR102x_A06\battery_hw.o
 .debug_ranges  0x00000a30       0x28 depend_Debug_CSR102x_A06\iot_hw.o
 .debug_ranges  0x00000a80       0x34 depend_Debug_CSR102x_A06\csr_mesh_ps_ifce.o
 .debug_ranges  0x00000ae8       0x3c depend_Debug_CSR102x_A06\core_mesh_handler.o
 .debug_ranges  0x00000b60        0xc depend_Debug_CSR102x_A06\app_util.o
 .debug_ranges  0x00000b78       0x78 depend_Debug_CSR102x_A06\connection_handler.o
 .debug_ranges  0x00000c68       0x24 depend_Debug_CSR102x_A06\advertisement_handler.o
 .debug_ranges  0x00000cb0       0x30 depend_Debug_CSR102x_A06\app_otau_handler.o
 .debug_ranges  0x00000d10       0x14 depend_Debug_CSR102x_A06\scan_handler.o
 .debug_ranges  0x00000d38       0x5c depend_Debug_CSR102x_A06\app_otau_client_handler.o
 .debug_ranges  0x00000df0       0x1c depend_Debug_CSR102x_A06\extension_model_handler.o
 .debug_ranges  0x00000e28       0x30 depend_Debug_CSR102x_A06\gap_service.o
 .debug_ranges  0x00000e88       0x30 depend_Debug_CSR102x_A06\gatt_service.o
 .debug_ranges  0x00000ee8       0x20 depend_Debug_CSR102x_A06\mesh_control_service.o
 .debug_ranges  0x00000f28       0x30 depend_Debug_CSR102x_A06\byte_utils.o
 .debug_ranges  0x00000f88       0x38 depend_Debug_CSR102x_A06\gaia.o
 .debug_ranges  0x00000ff8       0x94 depend_Debug_CSR102x_A06\gaia_otau.o
 .debug_ranges  0x00001120       0x2c depend_Debug_CSR102x_A06\gaia_service.o
 .debug_ranges  0x00001178       0x30 depend_Debug_CSR102x_A06\main_app.o
 .debug_ranges  0x000011d8       0x4c depend_Debug_CSR102x_A06\app_mesh_handler.o
 .debug_ranges  0x00001270       0x20 depend_Debug_CSR102x_A06\app_hw.o
 .debug_ranges  0x000012b0       0x30 depend_Debug_CSR102x_A06\ONESECOND.o
 .debug_ranges  0x00001310       0x38 depend_Debug_CSR102x_A06\uart_queue.o
 .debug_ranges  0x00001380       0x1c depend_Debug_CSR102x_A06\UARTMCU.o

.debug_str      0x00000000     0x830e
 .debug_str     0x00000000       0x92 depend_Debug_CSR102x_A06\app_gatt_db.o
                                 0xac (size before relaxing)
 .debug_str     0x00000123       0xa6 depend_Debug_CSR102x_A06\gaia_client.o
                                0x141 (size before relaxing)
 .debug_str     0x0000026e     0x104c depend_Debug_CSR102x_A06\gaia_client_service.o
                               0x1168 (size before relaxing)
 .debug_str     0x00002305      0xb17 depend_Debug_CSR102x_A06\gaia_otau_client.o
                               0x1403 (size before relaxing)
 .debug_str     0x00003932      0x15d depend_Debug_CSR102x_A06\conn_param_update.o
                                0xfe3 (size before relaxing)
 .debug_str     0x00003bec     0x1511 depend_Debug_CSR102x_A06\nvm_access.o
                               0x1f0d (size before relaxing)
 .debug_str     0x0000660e      0x798 depend_Debug_CSR102x_A06\cm_common.o
                               0x1767 (size before relaxing)
 .debug_str     0x0000753e      0x937 depend_Debug_CSR102x_A06\cm_hal.o
                               0x30ee (size before relaxing)
 .debug_str     0x000087ab      0x1db depend_Debug_CSR102x_A06\cm_private.o
                               0x2c8d (size before relaxing)
 .debug_str     0x00008b60      0x201 depend_Debug_CSR102x_A06\cm_security.o
                               0x2c57 (size before relaxing)
 .debug_str     0x00008f61      0x12c depend_Debug_CSR102x_A06\cm_server.o
                               0x272a (size before relaxing)
 .debug_str     0x000091b9      0x1a7 depend_Debug_CSR102x_A06\cm_observer.o
                               0x258e (size before relaxing)
 .debug_str     0x00009506      0x327 depend_Debug_CSR102x_A06\cm_peripheral.o
                               0x2a45 (size before relaxing)
 .debug_str     0x00009b54      0x130 depend_Debug_CSR102x_A06\cm_central.o
                               0x2879 (size before relaxing)
 .debug_str     0x00009db4      0x29b depend_Debug_CSR102x_A06\cm_client.o
                               0x2915 (size before relaxing)
 .debug_str     0x0000a2e9       0x72 depend_Debug_CSR102x_A06\battery_hw.o
                                0x10a (size before relaxing)
 .debug_str     0x0000a3cd       0x14 depend_Debug_CSR102x_A06\fast_pwm.o
                                 0x9a (size before relaxing)
 .debug_str     0x0000a3f4      0x1bf depend_Debug_CSR102x_A06\iot_hw.o
                                0x26c (size before relaxing)
 .debug_str     0x0000a772       0xbc depend_Debug_CSR102x_A06\csr_mesh_ps_ifce.o
                                0x15f (size before relaxing)
 .debug_str     0x0000a8e9       0x38 depend_Debug_CSR102x_A06\attention_model_handler.o
                                 0xc4 (size before relaxing)
 .debug_str     0x0000a958       0x22 depend_Debug_CSR102x_A06\battery_model_handler.o
                                 0xaa (size before relaxing)
 .debug_str     0x0000a99b      0x639 depend_Debug_CSR102x_A06\core_mesh_handler.o
                                0x733 (size before relaxing)
 .debug_str     0x0000b60d       0x1f depend_Debug_CSR102x_A06\data_model_handler.o
                                 0xbf (size before relaxing)
 .debug_str     0x0000b64a       0x20 depend_Debug_CSR102x_A06\light_model_handler.o
                                 0xc6 (size before relaxing)
 .debug_str     0x0000b689       0x20 depend_Debug_CSR102x_A06\power_model_handler.o
                                 0xc0 (size before relaxing)
 .debug_str     0x0000b6c8       0xf7 depend_Debug_CSR102x_A06\app_util.o
                                0x1a2 (size before relaxing)
 .debug_str     0x0000b8b5      0x2db depend_Debug_CSR102x_A06\connection_handler.o
                               0x16c2 (size before relaxing)
 .debug_str     0x0000be6a      0x1c3 depend_Debug_CSR102x_A06\advertisement_handler.o
                                0xb0f (size before relaxing)
 .debug_str     0x0000c1f0       0x1f depend_Debug_CSR102x_A06\time_model_handler.o
                                 0xd9 (size before relaxing)
 .debug_str     0x0000c22d       0x21 depend_Debug_CSR102x_A06\action_model_handler.o
                                 0xdb (size before relaxing)
 .debug_str     0x0000c26e       0x2e depend_Debug_CSR102x_A06\largeobjecttransfer_model_handler.o
                                 0xdc (size before relaxing)
 .debug_str     0x0000c2c9       0x20 depend_Debug_CSR102x_A06\asset_model_handler.o
                                 0xda (size before relaxing)
 .debug_str     0x0000c308       0x22 depend_Debug_CSR102x_A06\tracker_model_handler.o
                                 0xdc (size before relaxing)
 .debug_str     0x0000c34b      0x345 depend_Debug_CSR102x_A06\app_otau_handler.o
                                0xc63 (size before relaxing)
 .debug_str     0x0000c9d4       0x41 depend_Debug_CSR102x_A06\scan_handler.o
                                0x286 (size before relaxing)
 .debug_str     0x0000ca56      0x579 depend_Debug_CSR102x_A06\app_otau_client_handler.o
                               0x2442 (size before relaxing)
 .debug_str     0x0000d548      0x848 depend_Debug_CSR102x_A06\extension_model_handler.o
                                0x98b (size before relaxing)
 .debug_str     0x0000e5d7       0x9e depend_Debug_CSR102x_A06\gap_service.o
                               0x1154 (size before relaxing)
 .debug_str     0x0000e713       0x6c depend_Debug_CSR102x_A06\gatt_service.o
                                0xfba (size before relaxing)
 .debug_str     0x0000e7ea       0x9a depend_Debug_CSR102x_A06\mesh_control_service.o
                               0x107e (size before relaxing)
 .debug_str     0x0000e91e       0x80 depend_Debug_CSR102x_A06\byte_utils.o
                                0x11d (size before relaxing)
 .debug_str     0x0000ea1e       0xca depend_Debug_CSR102x_A06\gaia.o
                                0x9ea (size before relaxing)
 .debug_str     0x0000ebb2      0x37a depend_Debug_CSR102x_A06\gaia_otau.o
                               0x2b32 (size before relaxing)
 .debug_str     0x0000f2a6       0x92 depend_Debug_CSR102x_A06\gaia_service.o
                                0xfe0 (size before relaxing)
 .debug_str     0x0000f3ca      0x26b depend_Debug_CSR102x_A06\main_app.o
                               0x223b (size before relaxing)
 .debug_str     0x0000f8a0      0x35b depend_Debug_CSR102x_A06\app_mesh_handler.o
                                0x698 (size before relaxing)
 .debug_str     0x0000ff56       0x61 depend_Debug_CSR102x_A06\app_hw.o
                                0x144 (size before relaxing)
 .debug_str     0x00010017       0x7e depend_Debug_CSR102x_A06\ONESECOND.o
                                0x342 (size before relaxing)
 .debug_str     0x00010113       0x8e depend_Debug_CSR102x_A06\uart_queue.o
                                0x126 (size before relaxing)
 .debug_str     0x0001022f      0x1f6 depend_Debug_CSR102x_A06\UARTMCU.o
                               0x1d47 (size before relaxing)

.comment        0x00000000      0xbc8
 .comment       0x00000000       0x1a depend_Debug_CSR102x_A06\app_gatt_db.o
 .comment       0x0000001a       0x1a depend_Debug_CSR102x_A06\gaia_client.o
 .comment       0x00000034       0x1a depend_Debug_CSR102x_A06\gaia_client_service.o
 .comment       0x0000004e       0x1a depend_Debug_CSR102x_A06\gaia_otau_client.o
 .comment       0x00000068       0x1a depend_Debug_CSR102x_A06\conn_param_update.o
 .comment       0x00000082       0x1a depend_Debug_CSR102x_A06\nvm_access.o
 .comment       0x0000009c       0x1a depend_Debug_CSR102x_A06\cm_common.o
 .comment       0x000000b6       0x1a depend_Debug_CSR102x_A06\cm_hal.o
 .comment       0x000000d0       0x1a depend_Debug_CSR102x_A06\cm_private.o
 .comment       0x000000ea       0x1a depend_Debug_CSR102x_A06\cm_security.o
 .comment       0x00000104       0x1a depend_Debug_CSR102x_A06\cm_server.o
 .comment       0x0000011e       0x1a depend_Debug_CSR102x_A06\cm_observer.o
 .comment       0x00000138       0x1a depend_Debug_CSR102x_A06\cm_peripheral.o
 .comment       0x00000152       0x1a depend_Debug_CSR102x_A06\cm_central.o
 .comment       0x0000016c       0x1a depend_Debug_CSR102x_A06\cm_client.o
 .comment       0x00000186       0x1a depend_Debug_CSR102x_A06\battery_hw.o
 .comment       0x000001a0       0x1a depend_Debug_CSR102x_A06\fast_pwm.o
 .comment       0x000001ba       0x1a depend_Debug_CSR102x_A06\iot_hw.o
 .comment       0x000001d4       0x1a depend_Debug_CSR102x_A06\csr_mesh_ps_ifce.o
 .comment       0x000001ee       0x1a depend_Debug_CSR102x_A06\attention_model_handler.o
 .comment       0x00000208       0x1a depend_Debug_CSR102x_A06\battery_model_handler.o
 .comment       0x00000222       0x1a depend_Debug_CSR102x_A06\core_mesh_handler.o
 .comment       0x0000023c       0x1a depend_Debug_CSR102x_A06\data_model_handler.o
 .comment       0x00000256       0x1a depend_Debug_CSR102x_A06\light_model_handler.o
 .comment       0x00000270       0x1a depend_Debug_CSR102x_A06\power_model_handler.o
 .comment       0x0000028a       0x1a depend_Debug_CSR102x_A06\app_util.o
 .comment       0x000002a4       0x1a depend_Debug_CSR102x_A06\connection_handler.o
 .comment       0x000002be       0x1a depend_Debug_CSR102x_A06\advertisement_handler.o
 .comment       0x000002d8       0x1a depend_Debug_CSR102x_A06\time_model_handler.o
 .comment       0x000002f2       0x1a depend_Debug_CSR102x_A06\action_model_handler.o
 .comment       0x0000030c       0x1a depend_Debug_CSR102x_A06\largeobjecttransfer_model_handler.o
 .comment       0x00000326       0x1a depend_Debug_CSR102x_A06\asset_model_handler.o
 .comment       0x00000340       0x1a depend_Debug_CSR102x_A06\tracker_model_handler.o
 .comment       0x0000035a       0x1a depend_Debug_CSR102x_A06\app_otau_handler.o
 .comment       0x00000374       0x1a depend_Debug_CSR102x_A06\scan_handler.o
 .comment       0x0000038e       0x1a depend_Debug_CSR102x_A06\app_otau_client_handler.o
 .comment       0x000003a8       0x1a depend_Debug_CSR102x_A06\extension_model_handler.o
 .comment       0x000003c2       0x1a depend_Debug_CSR102x_A06\gap_service.o
 .comment       0x000003dc       0x1a depend_Debug_CSR102x_A06\gatt_service.o
 .comment       0x000003f6       0x1a depend_Debug_CSR102x_A06\mesh_control_service.o
 .comment       0x00000410       0x1a depend_Debug_CSR102x_A06\byte_utils.o
 .comment       0x0000042a       0x1a depend_Debug_CSR102x_A06\gaia.o
 .comment       0x00000444       0x1a depend_Debug_CSR102x_A06\gaia_otau.o
 .comment       0x0000045e       0x1a depend_Debug_CSR102x_A06\gaia_service.o
 .comment       0x00000478       0x1a depend_Debug_CSR102x_A06\main_app.o
 .comment       0x00000492       0x1a depend_Debug_CSR102x_A06\app_mesh_handler.o
 .comment       0x000004ac       0x1a depend_Debug_CSR102x_A06\app_hw.o
 .comment       0x000004c6       0x1a depend_Debug_CSR102x_A06\ONESECOND.o
 .comment       0x000004e0       0x1a depend_Debug_CSR102x_A06\uart_queue.o
 .comment       0x000004fa       0x1a depend_Debug_CSR102x_A06\UARTMCU.o
 .comment       0x00000514       0x1a ..\mesh_common\mesh\libraries\CSR102x_A06\libcsrmesh.a(csr_mesh.o)
 .comment       0x0000052e       0x1a ..\mesh_common\mesh\libraries\CSR102x_A06\libcsrmesh.a(csr_mesh_masp_mcp_common.o)
 .comment       0x00000548       0x1a ..\mesh_common\mesh\libraries\CSR102x_A06\libcsrmesh.a(csr_mesh_mtl.o)
 .comment       0x00000562       0x1a ..\mesh_common\mesh\libraries\CSR102x_A06\libcsrmesh.a(csr_mesh_ec_alloc.o)
 .comment       0x0000057c       0x1a ..\mesh_common\mesh\libraries\CSR102x_A06\libcsrmesh.a(csr_mesh_masp.o)
 .comment       0x00000596       0x1a ..\mesh_common\mesh\libraries\CSR102x_A06\libcsrmesh.a(csr_mesh_mcp.o)
 .comment       0x000005b0       0x1a ..\mesh_common\mesh\libraries\CSR102x_A06\libcsrmesh.a(csr_mesh_sha256_get_results.o)
 .comment       0x000005ca       0x1a ..\mesh_common\mesh\libraries\CSR102x_A06\libcsrmesh.a(csr_mesh_sha256_hmac.o)
 .comment       0x000005e4       0x1a ..\mesh_common\mesh\libraries\CSR102x_A06\libcsrmesh.a(csr_mesh_sha256_initialise.o)
 .comment       0x000005fe       0x1a ..\mesh_common\mesh\libraries\CSR102x_A06\libcsrmesh.a(csr_mesh_sha256_process_data.o)
 .comment       0x00000618       0x1a ..\mesh_common\mesh\libraries\CSR102x_A06\libcsrmesh.a(csr_mesh_bearer.o)
 .comment       0x00000632       0x1a ..\mesh_common\mesh\libraries\CSR102x_A06\libcsrmesh.a(csr_mesh_bearer_porting_util.o)
 .comment       0x0000064c       0x1a ..\mesh_common\mesh\libraries\CSR102x_A06\libcsrmesh.a(csr1010_scheduler.o)
 .comment       0x00000666       0x1a ..\mesh_common\mesh\libraries\CSR102x_A06\libcsrmesh.a(csr_mesh_hal_ifce.o)
 .comment       0x00000680       0x1a ..\mesh_common\mesh\libraries\CSR102x_A06\libcsrmesh.a(csr_mesh_security_ifce_101x.o)
 .comment       0x0000069a       0x1a ..\mesh_common\mesh\libraries\CSR102x_A06\libcsrmesh.a(csr_mesh_config_model.o)
 .comment       0x000006b4       0x1a ..\mesh_common\mesh\libraries\CSR102x_A06\libcsrmesh.a(csr_mesh_bearer_model.o)
 .comment       0x000006ce       0x1a ..\mesh_common\mesh\libraries\CSR102x_A06\libcsrmesh.a(csr_mesh_ec_math.o)
 .comment       0x000006e8       0x1a ..\mesh_common\mesh\libraries\CSR102x_A06\libcsrmesh.a(csr_mesh_group_model.o)
 .comment       0x00000702       0x1a ..\mesh_common\mesh\libraries\CSR102x_A06\libcsrmesh.a(csr_mesh_large_num.o)
 .comment       0x0000071c       0x1a ..\mesh_common\mesh\libraries\CSR102x_A06\libcsrmesh.a(csr_mesh_sha_add_to_cache.o)
 .comment       0x00000736       0x1a ..\mesh_common\mesh\libraries\CSR102x_A06\libcsrmesh.a(csr_mesh_sha256_calc_ith_hash_val.o)
 .comment       0x00000750       0x1a ..\mesh_common\mesh\libraries\CSR102x_A06\libextension_client.a(extension_client_exception.o)
 .comment       0x0000076a       0x1a ..\mesh_common\mesh\libraries\CSR102x_A06\libextension_server.a(extension_model.o)
 .comment       0x00000784       0x1a ..\mesh_common\mesh\libraries\CSR102x_A06\libextension_server.a(extension_server_exception.o)
 .comment       0x0000079e       0x1a C:\CSR102x_SDK-3.1.1\tools\lib\CSR102x_A06\libgatt_lib_ram.a(gatt_init.o)
 .comment       0x000007b8       0x1a C:\CSR102x_SDK-3.1.1\tools\lib\CSR102x_A06\libgatt_lib_ram.a(gatt_exchange_mtu_rsp_api.o)
 .comment       0x000007d2       0x1a C:\CSR102x_SDK-3.1.1\tools\lib\CSR102x_A06\libgatt_lib_ram.a(sm_ram.o)
 .comment       0x000007ec       0x1a C:\CSR102x_SDK-3.1.1\tools\lib\CSR102x_A06\libgatt_lib_ram.a(sm_key_req_api.o)
 .comment       0x00000806       0x1a C:\CSR102x_SDK-3.1.1\tools\lib\CSR102x_A06\libgatt_lib_ram.a(sm_div_approval_api.o)
 .comment       0x00000820       0x1a C:\CSR102x_SDK-3.1.1\tools\lib\CSR102x_A06\libgatt_lib_ram.a(sm_pairing_auth_api.o)
 .comment       0x0000083a       0x1a C:\CSR102x_SDK-3.1.1\tools\lib\CSR102x_A06\libgatt_lib_ram.a(sm_ltk_api.o)
 .comment       0x00000854       0x1a C:\CSR102x_SDK-3.1.1\tools\lib\CSR102x_A06\libgatt_lib_ram.a(bletest.o)
 .comment       0x0000086e       0x1a C:\CSR102x_SDK-3.1.1\tools\lib\CSR102x_A06\libgatt_lib_ram.a(patch_uart.o)
 .comment       0x00000888       0x1a C:\CSR102x_SDK-3.1.1\tools\lib\CSR102x_A06\libgatt_lib_ram.a(id_ram.o)
 .comment       0x000008a2       0x1a C:\CSR102x_SDK-3.1.1\tools\lib\CSR102x_A06\libgatt_lib_ram.a(sw_patch_ram.o)
 .comment       0x000008bc       0x1a C:\CSR102x_SDK-3.1.1\tools\lib\CSR102x_A06\libgatt_lib_ram.a(configstore_api.o)
 .comment       0x000008d6       0x1a C:\CSR102x_SDK-3.1.1\tools\lib\CSR102x_A06\libgatt_lib_ram.a(userstore_api.o)
 .comment       0x000008f0       0x1a C:\CSR102x_SDK-3.1.1\tools\lib\CSR102x_A06\libgatt_lib_ram.a(patch_store_update_msg_handler.o)
 .comment       0x0000090a       0x1a C:\CSR102x_SDK-3.1.1\tools\lib\CSR102x_A06\libgatt_lib_ram.a(patch_sysop_pmu_fht.o)
 .comment       0x00000924       0x1a C:\CSR102x_SDK-3.1.1\tools\lib\CSR102x_A06\libgatt_lib_ram.a(patch_bleinit.o)
 .comment       0x0000093e       0x1a C:\CSR102x_SDK-3.1.1\tools\lib\CSR102x_A06\libgatt_lib_ram.a(patch_blerx.o)
 .comment       0x00000958       0x1a C:\CSR102x_SDK-3.1.1\tools\lib\CSR102x_A06\libgatt_lib_ram.a(patch_blelo.o)
 .comment       0x00000972       0x1a C:\CSR102x_SDK-3.1.1\tools\lib\CSR102x_A06\libgatt_lib_ram.a(patch_bletx.o)
 .comment       0x0000098c       0x1a C:\CSR102x_SDK-3.1.1\tools\lib\CSR102x_A06\libgatt_lib_ram.a(patch_hal_bleradio.o)
 .comment       0x000009a6       0x1a C:\CSR102x_SDK-3.1.1\tools\lib\CSR102x_A06\libgatt_lib_ram.a(strncpy.o)
 .comment       0x000009c0       0x1a C:\CSR102x_SDK-3.1.1\tools\lib\CSR102x_A06\libgatt_lib_ram.a(patch_bg_ints.o)
 .comment       0x000009da       0x1a C:\CSR102x_SDK-3.1.1\tools\lib\CSR102x_A06\libgatt_lib_ram.a(patch_ls.o)
 .comment       0x000009f4       0x1a C:\CSR102x_SDK-3.1.1\tools\lib\CSR102x_A06\libgatt_lib_ram.a(patch_att.o)
 .comment       0x00000a0e       0x1a C:\CSR102x_SDK-3.1.1\tools\lib\CSR102x_A06\libgatt_lib_ram.a(patch_george_interrupt.o)
 .comment       0x00000a28       0x1a C:\CSR102x_SDK-3.1.1\tools\lib\CSR102x_A06\libgatt_lib_ram.a(patch_george.o)
 .comment       0x00000a42       0x1a C:\CSR102x_SDK-3.1.1\tools\lib\CSR102x_A06\libgatt_lib_ram.a(patch_george_reset.o)
 .comment       0x00000a5c       0x1a C:\CSR102x_SDK-3.1.1\tools\lib\CSR102x_A06\libgatt_lib_ram.a(patch_george_scheduler.o)
 .comment       0x00000a76       0x1a C:\CSR102x_SDK-3.1.1\tools\lib\CSR102x_A06\libgatt_lib_ram.a(patch_george_acl_tx_buffers.o)
 .comment       0x00000a90       0x1a C:\CSR102x_SDK-3.1.1\tools\lib\CSR102x_A06\libgatt_lib_ram.a(patch_george_test.o)
 .comment       0x00000aaa       0x1a C:\CSR102x_SDK-3.1.1\tools\lib\CSR102x_A06\libgatt_lib_ram.a(patch_george_rssi.o)
 .comment       0x00000ac4       0x1a C:\CSR102x_SDK-3.1.1\tools\lib\CSR102x_A06\libgatt_lib_ram.a(patch_reset.o)
 .comment       0x00000ade       0x1a C:\CSR102x_SDK-3.1.1\tools\lib\CSR102x_A06\libgatt_lib_ram.a(patch_background.o)
 .comment       0x00000af8       0x1a C:\CSR102x_SDK-3.1.1\tools\lib\CSR102x_A06\libgatt_lib_ram.a(patch_wd.o)
 .comment       0x00000b12       0x1a C:\CSR102x_SDK-3.1.1\tools\lib\CSR102x_A06\libgatt_lib_ram.a(app_proxy_init.o)
 .comment       0x00000b2c       0x1a C:\CSR102x_SDK-3.1.1\tools\lib\CSR102x_A06\libgatt_lib_ram.a(profiling.o)
 .comment       0x00000b46       0x1a C:\CSR102x_SDK-3.1.1\tools\lib\CSR102x_A06\libgatt_lib_ram.a(patch_hal_uart.o)
 .comment       0x00000b60       0x1a C:\CSR102x_SDK-3.1.1\tools\lib\CSR102x_A06\libgatt_lib_ram.a(patch_sysop_fosc_trim.o)
 .comment       0x00000b7a       0x1a C:\CSR102x_SDK-3.1.1\tools\lib\CSR102x_A06\libgatt_lib_ram.a(patch_smem.o)
 .comment       0x00000b94       0x1a C:\CSR102x_SDK-3.1.1\tools\lib\CSR102x_A06\libgatt_lib_ram.a(patch_activity.o)
 .comment       0x00000bae       0x1a C:\CSR102x_SDK-3.1.1\tools\lib\CSR102x_A06\libgatt_lib_ram.a(hw_patch_install.o)
